ccopy_reg
_reconstructor
p1
(cmatplotlib.font_manager
FontManager
p2
c__builtin__
object
p3
NtRp4
(dp5
S'ttflist'
p6
(lp7
g1
(cmatplotlib.font_manager
FontEntry
p8
g3
NtRp9
(dp10
S'style'
p11
Vnormal
p12
sS'name'
p13
Vcmex10
p14
sS'weight'
p15
I400
sS'stretch'
p16
g12
sS'variant'
p17
g12
sS'fname'
p18
V/anaconda/anaconda/envs/ctools/lib/python2.7/site-packages/matplotlib/mpl-data/fonts/ttf/cmex10.ttf
p19
sS'size'
p20
Vscalable
p21
sbag1
(g8
g3
NtRp22
(dp23
g11
g12
sg13
Vcmmi10
p24
sg15
I400
sg16
g12
sg17
g12
sg18
V/anaconda/anaconda/envs/ctools/lib/python2.7/site-packages/matplotlib/mpl-data/fonts/ttf/cmmi10.ttf
p25
sg20
g21
sbag1
(g8
g3
NtRp26
(dp27
g11
g12
sg13
VDejaVu Sans Mono
p28
sg15
I700
sg16
g12
sg17
g12
sg18
V/anaconda/anaconda/envs/ctools/lib/python2.7/site-packages/matplotlib/mpl-data/fonts/ttf/DejaVuSansMono-Bold.ttf
p29
sg20
g21
sbag1
(g8
g3
NtRp30
(dp31
g11
Vitalic
p32
sg13
VSTIXNonUnicode
p33
sg15
I400
sg16
g12
sg17
g12
sg18
V/anaconda/anaconda/envs/ctools/lib/python2.7/site-packages/matplotlib/mpl-data/fonts/ttf/STIXNonUniIta.ttf
p34
sg20
g21
sbag1
(g8
g3
NtRp35
(dp36
g11
g12
sg13
VSTIXNonUnicode
p37
sg15
I700
sg16
g12
sg17
g12
sg18
V/anaconda/anaconda/envs/ctools/lib/python2.7/site-packages/matplotlib/mpl-data/fonts/ttf/STIXNonUniBol.ttf
p38
sg20
g21
sbag1
(g8
g3
NtRp39
(dp40
g11
Voblique
p41
sg13
VDejaVu Sans Mono
p42
sg15
I700
sg16
g12
sg17
g12
sg18
V/anaconda/anaconda/envs/ctools/lib/python2.7/site-packages/matplotlib/mpl-data/fonts/ttf/DejaVuSansMono-BoldOblique.ttf
p43
sg20
g21
sbag1
(g8
g3
NtRp44
(dp45
g11
g41
sg13
VDejaVu Sans Mono
p46
sg15
I400
sg16
g12
sg17
g12
sg18
V/anaconda/anaconda/envs/ctools/lib/python2.7/site-packages/matplotlib/mpl-data/fonts/ttf/DejaVuSansMono-Oblique.ttf
p47
sg20
g21
sbag1
(g8
g3
NtRp48
(dp49
g11
g32
sg13
VSTIXNonUnicode
p50
sg15
I700
sg16
g12
sg17
g12
sg18
V/anaconda/anaconda/envs/ctools/lib/python2.7/site-packages/matplotlib/mpl-data/fonts/ttf/STIXNonUniBolIta.ttf
p51
sg20
g21
sbag1
(g8
g3
NtRp52
(dp53
g11
g12
sg13
VSTIXSizeOneSym
p54
sg15
I700
sg16
g12
sg17
g12
sg18
V/anaconda/anaconda/envs/ctools/lib/python2.7/site-packages/matplotlib/mpl-data/fonts/ttf/STIXSizOneSymBol.ttf
p55
sg20
g21
sbag1
(g8
g3
NtRp56
(dp57
g11
g12
sg13
VSTIXSizeFiveSym
p58
sg15
I400
sg16
g12
sg17
g12
sg18
V/anaconda/anaconda/envs/ctools/lib/python2.7/site-packages/matplotlib/mpl-data/fonts/ttf/STIXSizFiveSymReg.ttf
p59
sg20
g21
sbag1
(g8
g3
NtRp60
(dp61
g11
g12
sg13
VDejaVu Sans Mono
p62
sg15
I400
sg16
g12
sg17
g12
sg18
V/anaconda/anaconda/envs/ctools/lib/python2.7/site-packages/matplotlib/mpl-data/fonts/ttf/DejaVuSansMono.ttf
p63
sg20
g21
sbag1
(g8
g3
NtRp64
(dp65
g11
g12
sg13
VSTIXSizeFourSym
p66
sg15
I700
sg16
g12
sg17
g12
sg18
V/anaconda/anaconda/envs/ctools/lib/python2.7/site-packages/matplotlib/mpl-data/fonts/ttf/STIXSizFourSymBol.ttf
p67
sg20
g21
sbag1
(g8
g3
NtRp68
(dp69
g11
g12
sg13
VSTIXSizeTwoSym
p70
sg15
I400
sg16
g12
sg17
g12
sg18
V/anaconda/anaconda/envs/ctools/lib/python2.7/site-packages/matplotlib/mpl-data/fonts/ttf/STIXSizTwoSymReg.ttf
p71
sg20
g21
sbag1
(g8
g3
NtRp72
(dp73
g11
g12
sg13
VSTIXGeneral
p74
sg15
I700
sg16
g12
sg17
g12
sg18
V/anaconda/anaconda/envs/ctools/lib/python2.7/site-packages/matplotlib/mpl-data/fonts/ttf/STIXGeneralBol.ttf
p75
sg20
g21
sbag1
(g8
g3
NtRp76
(dp77
g11
g12
sg13
VDejaVu Sans
p78
sg15
I400
sg16
g12
sg17
g12
sg18
V/anaconda/anaconda/envs/ctools/lib/python2.7/site-packages/matplotlib/mpl-data/fonts/ttf/DejaVuSans.ttf
p79
sg20
g21
sbag1
(g8
g3
NtRp80
(dp81
g11
g12
sg13
Vcmr10
p82
sg15
I400
sg16
g12
sg17
g12
sg18
V/anaconda/anaconda/envs/ctools/lib/python2.7/site-packages/matplotlib/mpl-data/fonts/ttf/cmr10.ttf
p83
sg20
g21
sbag1
(g8
g3
NtRp84
(dp85
g11
g12
sg13
VDejaVu Serif
p86
sg15
I400
sg16
g12
sg17
g12
sg18
V/anaconda/anaconda/envs/ctools/lib/python2.7/site-packages/matplotlib/mpl-data/fonts/ttf/DejaVuSerif.ttf
p87
sg20
g21
sbag1
(g8
g3
NtRp88
(dp89
g11
g32
sg13
VDejaVu Serif
p90
sg15
I700
sg16
g12
sg17
g12
sg18
V/anaconda/anaconda/envs/ctools/lib/python2.7/site-packages/matplotlib/mpl-data/fonts/ttf/DejaVuSerif-BoldItalic.ttf
p91
sg20
g21
sbag1
(g8
g3
NtRp92
(dp93
g11
g12
sg13
Vcmb10
p94
sg15
I400
sg16
g12
sg17
g12
sg18
V/anaconda/anaconda/envs/ctools/lib/python2.7/site-packages/matplotlib/mpl-data/fonts/ttf/cmb10.ttf
p95
sg20
g21
sbag1
(g8
g3
NtRp96
(dp97
g11
g41
sg13
VDejaVu Sans
p98
sg15
I700
sg16
g12
sg17
g12
sg18
V/anaconda/anaconda/envs/ctools/lib/python2.7/site-packages/matplotlib/mpl-data/fonts/ttf/DejaVuSans-BoldOblique.ttf
p99
sg20
g21
sbag1
(g8
g3
NtRp100
(dp101
g11
g12
sg13
VDejaVu Serif
p102
sg15
I700
sg16
g12
sg17
g12
sg18
V/anaconda/anaconda/envs/ctools/lib/python2.7/site-packages/matplotlib/mpl-data/fonts/ttf/DejaVuSerif-Bold.ttf
p103
sg20
g21
sbag1
(g8
g3
NtRp104
(dp105
g11
g12
sg13
VSTIXSizeOneSym
p106
sg15
I400
sg16
g12
sg17
g12
sg18
V/anaconda/anaconda/envs/ctools/lib/python2.7/site-packages/matplotlib/mpl-data/fonts/ttf/STIXSizOneSymReg.ttf
p107
sg20
g21
sbag1
(g8
g3
NtRp108
(dp109
g11
g12
sg13
VDejaVu Serif Display
p110
sg15
I400
sg16
g12
sg17
g12
sg18
V/anaconda/anaconda/envs/ctools/lib/python2.7/site-packages/matplotlib/mpl-data/fonts/ttf/DejaVuSerifDisplay.ttf
p111
sg20
g21
sbag1
(g8
g3
NtRp112
(dp113
g11
g12
sg13
VSTIXSizeTwoSym
p114
sg15
I700
sg16
g12
sg17
g12
sg18
V/anaconda/anaconda/envs/ctools/lib/python2.7/site-packages/matplotlib/mpl-data/fonts/ttf/STIXSizTwoSymBol.ttf
p115
sg20
g21
sbag1
(g8
g3
NtRp116
(dp117
g11
g12
sg13
VSTIXNonUnicode
p118
sg15
I400
sg16
g12
sg17
g12
sg18
V/anaconda/anaconda/envs/ctools/lib/python2.7/site-packages/matplotlib/mpl-data/fonts/ttf/STIXNonUni.ttf
p119
sg20
g21
sbag1
(g8
g3
NtRp120
(dp121
g11
g12
sg13
VSTIXGeneral
p122
sg15
I400
sg16
g12
sg17
g12
sg18
V/anaconda/anaconda/envs/ctools/lib/python2.7/site-packages/matplotlib/mpl-data/fonts/ttf/STIXGeneral.ttf
p123
sg20
g21
sbag1
(g8
g3
NtRp124
(dp125
g11
g32
sg13
VSTIXGeneral
p126
sg15
I400
sg16
g12
sg17
g12
sg18
V/anaconda/anaconda/envs/ctools/lib/python2.7/site-packages/matplotlib/mpl-data/fonts/ttf/STIXGeneralItalic.ttf
p127
sg20
g21
sbag1
(g8
g3
NtRp128
(dp129
g11
g41
sg13
VDejaVu Sans
p130
sg15
I400
sg16
g12
sg17
g12
sg18
V/anaconda/anaconda/envs/ctools/lib/python2.7/site-packages/matplotlib/mpl-data/fonts/ttf/DejaVuSans-Oblique.ttf
p131
sg20
g21
sbag1
(g8
g3
NtRp132
(dp133
g11
g12
sg13
Vcmsy10
p134
sg15
I400
sg16
g12
sg17
g12
sg18
V/anaconda/anaconda/envs/ctools/lib/python2.7/site-packages/matplotlib/mpl-data/fonts/ttf/cmsy10.ttf
p135
sg20
g21
sbag1
(g8
g3
NtRp136
(dp137
g11
g12
sg13
VDejaVu Sans
p138
sg15
I700
sg16
g12
sg17
g12
sg18
V/anaconda/anaconda/envs/ctools/lib/python2.7/site-packages/matplotlib/mpl-data/fonts/ttf/DejaVuSans-Bold.ttf
p139
sg20
g21
sbag1
(g8
g3
NtRp140
(dp141
g11
g12
sg13
VDejaVu Sans Display
p142
sg15
I400
sg16
g12
sg17
g12
sg18
V/anaconda/anaconda/envs/ctools/lib/python2.7/site-packages/matplotlib/mpl-data/fonts/ttf/DejaVuSansDisplay.ttf
p143
sg20
g21
sbag1
(g8
g3
NtRp144
(dp145
g11
g12
sg13
VSTIXSizeFourSym
p146
sg15
I400
sg16
g12
sg17
g12
sg18
V/anaconda/anaconda/envs/ctools/lib/python2.7/site-packages/matplotlib/mpl-data/fonts/ttf/STIXSizFourSymReg.ttf
p147
sg20
g21
sbag1
(g8
g3
NtRp148
(dp149
g11
g12
sg13
VSTIXSizeThreeSym
p150
sg15
I400
sg16
g12
sg17
g12
sg18
V/anaconda/anaconda/envs/ctools/lib/python2.7/site-packages/matplotlib/mpl-data/fonts/ttf/STIXSizThreeSymReg.ttf
p151
sg20
g21
sbag1
(g8
g3
NtRp152
(dp153
g11
g12
sg13
VSTIXSizeThreeSym
p154
sg15
I700
sg16
g12
sg17
g12
sg18
V/anaconda/anaconda/envs/ctools/lib/python2.7/site-packages/matplotlib/mpl-data/fonts/ttf/STIXSizThreeSymBol.ttf
p155
sg20
g21
sbag1
(g8
g3
NtRp156
(dp157
g11
g12
sg13
Vcmss10
p158
sg15
I400
sg16
g12
sg17
g12
sg18
V/anaconda/anaconda/envs/ctools/lib/python2.7/site-packages/matplotlib/mpl-data/fonts/ttf/cmss10.ttf
p159
sg20
g21
sbag1
(g8
g3
NtRp160
(dp161
g11
g12
sg13
Vcmtt10
p162
sg15
I400
sg16
g12
sg17
g12
sg18
V/anaconda/anaconda/envs/ctools/lib/python2.7/site-packages/matplotlib/mpl-data/fonts/ttf/cmtt10.ttf
p163
sg20
g21
sbag1
(g8
g3
NtRp164
(dp165
g11
g32
sg13
VSTIXGeneral
p166
sg15
I700
sg16
g12
sg17
g12
sg18
V/anaconda/anaconda/envs/ctools/lib/python2.7/site-packages/matplotlib/mpl-data/fonts/ttf/STIXGeneralBolIta.ttf
p167
sg20
g21
sbag1
(g8
g3
NtRp168
(dp169
g11
g32
sg13
VDejaVu Serif
p170
sg15
I400
sg16
g12
sg17
g12
sg18
V/anaconda/anaconda/envs/ctools/lib/python2.7/site-packages/matplotlib/mpl-data/fonts/ttf/DejaVuSerif-Italic.ttf
p171
sg20
g21
sbag1
(g8
g3
NtRp172
(dp173
g11
g32
sg13
VTrebuchet MS
p174
sg15
I400
sg16
g12
sg17
g12
sg18
V/Library/Fonts/Trebuchet MS Italic.ttf
p175
sg20
g21
sbag1
(g8
g3
NtRp176
(dp177
g11
g12
sg13
VTimes New Roman
p178
sg15
I500
sg16
g12
sg17
g12
sg18
V/Library/Fonts/Times New Roman.ttf
p179
sg20
g21
sbag1
(g8
g3
NtRp180
(dp181
g11
g32
sg13
VMyriad Pro
p182
sg15
I400
sg16
Vcondensed
p183
sg17
g12
sg18
V/Library/Fonts/MyriadPro-CondIt.otf
p184
sg20
g21
sbag1
(g8
g3
NtRp185
(dp186
g11
g12
sg13
VPoplar Std
p187
sg15
I900
sg16
g12
sg17
g12
sg18
V/Library/Fonts/PoplarStd.otf
p188
sg20
g21
sbag1
(g8
g3
NtRp189
(dp190
g11
g12
sg13
VArno Pro
p191
sg15
I700
sg16
g12
sg17
g12
sg18
V/Library/Fonts/ArnoPro-SmbdSubhead.otf
p192
sg20
g21
sbag1
(g8
g3
NtRp193
(dp194
g11
g32
sg13
VCMU Classical Serif
p195
sg15
I400
sg16
g12
sg17
g12
sg18
V/Users/jer/Library/Fonts/cmunci.otf
p196
sg20
g21
sbag1
(g8
g3
NtRp197
(dp198
g11
g32
sg13
VArno Pro
p199
sg15
I700
sg16
g12
sg17
g12
sg18
V/Library/Fonts/ArnoPro-SmbdItalicSubhead.otf
p200
sg20
g21
sbag1
(g8
g3
NtRp201
(dp202
g11
g32
sg13
VGill Sans MT
p203
sg15
I400
sg16
g12
sg17
g12
sg18
V/Library/Fonts/Microsoft/Gill Sans MT Italic.ttf
p204
sg20
g21
sbag1
(g8
g3
NtRp205
(dp206
g11
g12
sg13
VLiSong Pro
p207
sg15
I400
sg16
g12
sg17
g12
sg18
V/Library/Fonts/\u5137\u5b8b Pro.ttf
p208
sg20
g21
sbag1
(g8
g3
NtRp209
(dp210
g11
g12
sg13
VAppleMyungjo
p211
sg15
I400
sg16
g12
sg17
g12
sg18
V/Library/Fonts/AppleMyungjo.ttf
p212
sg20
g21
sbag1
(g8
g3
NtRp213
(dp214
g11
g32
sg13
VArno Pro
p215
sg15
I700
sg16
g12
sg17
g12
sg18
V/Library/Fonts/ArnoPro-BoldItalic.otf
p216
sg20
g21
sbag1
(g8
g3
NtRp217
(dp218
g11
g12
sg13
VMishafi Gold
p219
sg15
I400
sg16
g12
sg17
g12
sg18
V/Library/Fonts/Mishafi Gold.ttf
p220
sg20
g21
sbag1
(g8
g3
NtRp221
(dp222
g11
g12
sg13
VOsaka
p223
sg15
I400
sg16
g12
sg17
g12
sg18
V/Library/Fonts/Osaka.ttf
p224
sg20
g21
sbag1
(g8
g3
NtRp225
(dp226
g11
g12
sg13
VCMU Concrete
p227
sg15
I700
sg16
g12
sg17
g12
sg18
V/Users/jer/Library/Fonts/cmunobx.otf
p228
sg20
g21
sbag1
(g8
g3
NtRp229
(dp230
g11
g12
sg13
VCMU Typewriter Text
p231
sg15
I700
sg16
g12
sg17
g12
sg18
V/Users/jer/Library/Fonts/cmuntb.otf
p232
sg20
g21
sbag1
(g8
g3
NtRp233
(dp234
g11
g12
sg13
VSTIXSizeThreeSym
p235
sg15
I700
sg16
g12
sg17
g12
sg18
V/Library/Fonts/STIXSizThreeSymBol.otf
p236
sg20
g21
sbag1
(g8
g3
NtRp237
(dp238
g11
g12
sg13
VBell Gothic Std
p239
sg15
I900
sg16
g12
sg17
g12
sg18
V/Library/Fonts/BellGothicStd-Black.otf
p240
sg20
g21
sbag1
(g8
g3
NtRp241
(dp242
g11
g12
sg13
VCandara
p243
sg15
I700
sg16
g12
sg17
g12
sg18
V/Library/Fonts/Microsoft/Candara Bold.ttf
p244
sg20
g21
sbag1
(g8
g3
NtRp245
(dp246
g11
g12
sg13
VTw Cen MT
p247
sg15
I400
sg16
g12
sg17
g12
sg18
V/Library/Fonts/Microsoft/Tw Cen MT.ttf
p248
sg20
g21
sbag1
(g8
g3
NtRp249
(dp250
g11
g32
sg13
VMyriad Pro
p251
sg15
I400
sg16
g12
sg17
g12
sg18
V/Library/Fonts/MyriadPro-It.otf
p252
sg20
g21
sbag1
(g8
g3
NtRp253
(dp254
g11
g12
sg13
VCorbel
p255
sg15
I700
sg16
g12
sg17
g12
sg18
V/Library/Fonts/Microsoft/Corbel Bold.ttf
p256
sg20
g21
sbag1
(g8
g3
NtRp257
(dp258
g11
g32
sg13
VArno Pro
p259
sg15
I400
sg16
g12
sg17
g12
sg18
V/Library/Fonts/ArnoPro-ItalicSmText.otf
p260
sg20
g21
sbag1
(g8
g3
NtRp261
(dp262
g11
g12
sg13
VCMU Sans Serif Demi Condensed
p263
sg15
I600
sg16
g183
sg17
g12
sg18
V/Users/jer/Library/Fonts/cmunssdc.otf
p264
sg20
g21
sbag1
(g8
g3
NtRp265
(dp266
g11
g32
sg13
VArial
p267
sg15
I700
sg16
g12
sg17
g12
sg18
V/Library/Fonts/Arial Bold Italic.ttf
p268
sg20
g21
sbag1
(g8
g3
NtRp269
(dp270
g11
g12
sg13
VHeadLineA
p271
sg15
I400
sg16
g12
sg17
g12
sg18
V/Library/Fonts/HeadlineA.ttf
p272
sg20
g21
sbag1
(g8
g3
NtRp273
(dp274
g11
g12
sg13
VTekton Pro
p275
sg15
I700
sg16
g12
sg17
g12
sg18
V/Library/Fonts/TektonPro-Bold.otf
p276
sg20
g21
sbag1
(g8
g3
NtRp277
(dp278
g11
g12
sg13
VSystem Font
p279
sg15
I400
sg16
g12
sg17
g12
sg18
V/System/Library/Fonts/SFNSText-RegularG2.otf
p280
sg20
g21
sbag1
(g8
g3
NtRp281
(dp282
g11
g41
sg13
VCMU Sans Serif
p283
sg15
I700
sg16
g12
sg17
g12
sg18
V/Users/jer/Library/Fonts/cmunso.otf
p284
sg20
g21
sbag1
(g8
g3
NtRp285
(dp286
g11
g32
sg13
VCMU Typewriter Text Variable Width
p287
sg15
I400
sg16
g12
sg17
g12
sg18
V/Users/jer/Library/Fonts/cmunvi.otf
p288
sg20
g21
sbag1
(g8
g3
NtRp289
(dp290
g11
g12
sg13
VArno Pro
p291
sg15
I400
sg16
g12
sg17
g12
sg18
V/Library/Fonts/ArnoPro-Caption.otf
p292
sg20
g21
sbag1
(g8
g3
NtRp293
(dp294
g11
g12
sg13
VCalibri
p295
sg15
I200
sg16
g12
sg17
g12
sg18
V/Library/Fonts/Microsoft/Calibril.ttf
p296
sg20
g21
sbag1
(g8
g3
NtRp297
(dp298
g11
g12
sg13
VLetter Gothic Std
p299
sg15
I500
sg16
g12
sg17
g12
sg18
V/Library/Fonts/LetterGothicStd.otf
p300
sg20
g21
sbag1
(g8
g3
NtRp301
(dp302
g11
g12
sg13
VSTIXSizeFiveSym
p303
sg15
I400
sg16
g12
sg17
g12
sg18
V/Library/Fonts/STIXSizFiveSymReg.otf
p304
sg20
g21
sbag1
(g8
g3
NtRp305
(dp306
g11
g12
sg13
VGurmukhi MT
p307
sg15
I400
sg16
g12
sg17
g12
sg18
V/Library/Fonts/Gurmukhi.ttf
p308
sg20
g21
sbag1
(g8
g3
NtRp309
(dp310
g11
g12
sg13
VYuGothic
p311
sg15
I700
sg16
g12
sg17
g12
sg18
V/Library/Fonts/Yu Gothic Bold.otf
p312
sg20
g21
sbag1
(g8
g3
NtRp313
(dp314
g11
g32
sg13
VCambria
p315
sg15
I400
sg16
g12
sg17
g12
sg18
V/Library/Fonts/Microsoft/Cambria Italic.ttf
p316
sg20
g21
sbag1
(g8
g3
NtRp317
(dp318
g11
g41
sg13
VTekton Pro
p319
sg15
I700
sg16
g12
sg17
g12
sg18
V/Library/Fonts/TektonPro-BoldObl.otf
p320
sg20
g21
sbag1
(g8
g3
NtRp321
(dp322
g11
g12
sg13
VSystem Font
p323
sg15
I400
sg16
g12
sg17
g12
sg18
V/System/Library/Fonts/SFNSDisplay-Light.otf
p324
sg20
g21
sbag1
(g8
g3
NtRp325
(dp326
g11
g32
sg13
VPerpetua
p327
sg15
I700
sg16
g12
sg17
g12
sg18
V/Library/Fonts/Microsoft/Perpetua Bold Italic.ttf
p328
sg20
g21
sbag1
(g8
g3
NtRp329
(dp330
g11
g12
sg13
VLucida Sans Unicode
p331
sg15
I400
sg16
g12
sg17
g12
sg18
V/Library/Fonts/Microsoft/Lucida Sans Unicode.ttf
p332
sg20
g21
sbag1
(g8
g3
NtRp333
(dp334
g11
g41
sg13
VCMU Typewriter Text
p335
sg15
I400
sg16
g12
sg17
g12
sg18
V/Users/jer/Library/Fonts/cmunst.otf
p336
sg20
g21
sbag1
(g8
g3
NtRp337
(dp338
g11
g12
sg13
VCMU Typewriter Text
p339
sg15
I200
sg16
g12
sg17
g12
sg18
V/Users/jer/Library/Fonts/cmunbtl.otf
p340
sg20
g21
sbag1
(g8
g3
NtRp341
(dp342
g11
g12
sg13
VVerdana
p343
sg15
I700
sg16
g12
sg17
g12
sg18
V/Library/Fonts/Microsoft/Verdana Bold.ttf
p344
sg20
g21
sbag1
(g8
g3
NtRp345
(dp346
g11
g12
sg13
VMyriad Pro
p347
sg15
I700
sg16
g12
sg17
g12
sg18
V/Library/Fonts/MyriadPro-Semibold.otf
p348
sg20
g21
sbag1
(g8
g3
NtRp349
(dp350
g11
g32
sg13
VArno Pro
p351
sg15
I700
sg16
g12
sg17
g12
sg18
V/Library/Fonts/ArnoPro-BoldItalicSmText.otf
p352
sg20
g21
sbag1
(g8
g3
NtRp353
(dp354
g11
g12
sg13
VCMU Serif
p355
sg15
I700
sg16
g12
sg17
g12
sg18
V/Users/jer/Library/Fonts/cmunbx.otf
p356
sg20
g21
sbag1
(g8
g3
NtRp357
(dp358
g11
g12
sg13
VVerdana
p359
sg15
I400
sg16
g12
sg17
g12
sg18
V/Library/Fonts/Microsoft/Verdana.ttf
p360
sg20
g21
sbag1
(g8
g3
NtRp361
(dp362
g11
g12
sg13
VKhmer Sangam MN
p363
sg15
I400
sg16
g12
sg17
g12
sg18
V/Library/Fonts/Khmer Sangam MN.ttf
p364
sg20
g21
sbag1
(g8
g3
NtRp365
(dp366
g11
g12
sg13
VPCMyungjo
p367
sg15
I400
sg16
g12
sg17
g12
sg18
V/Library/Fonts/PCmyoungjo.ttf
p368
sg20
g21
sbag1
(g8
g3
NtRp369
(dp370
g11
g32
sg13
VVerdana
p371
sg15
I700
sg16
g12
sg17
g12
sg18
V/Library/Fonts/Verdana Bold Italic.ttf
p372
sg20
g21
sbag1
(g8
g3
NtRp373
(dp374
g11
g12
sg13
VKokonor
p375
sg15
I400
sg16
g12
sg17
g12
sg18
V/Library/Fonts/Kokonor.ttf
p376
sg20
g21
sbag1
(g8
g3
NtRp377
(dp378
g11
g12
sg13
VApple Braille
p379
sg15
I400
sg16
g12
sg17
g12
sg18
V/System/Library/Fonts/Apple Braille.ttf
p380
sg20
g21
sbag1
(g8
g3
NtRp381
(dp382
g11
g32
sg13
VArno Pro
p383
sg15
I700
sg16
g12
sg17
g12
sg18
V/Library/Fonts/ArnoPro-BoldItalicSubhead.otf
p384
sg20
g21
sbag1
(g8
g3
NtRp385
(dp386
g11
g12
sg13
VSTIXNonUnicode
p387
sg15
I400
sg16
g12
sg17
g12
sg18
V/Library/Fonts/STIXNonUni.otf
p388
sg20
g21
sbag1
(g8
g3
NtRp389
(dp390
g11
g32
sg13
VSTIXNonUnicode
p391
sg15
I400
sg16
g12
sg17
g12
sg18
V/Library/Fonts/STIXNonUniIta.otf
p392
sg20
g21
sbag1
(g8
g3
NtRp393
(dp394
g11
g12
sg13
VMS Mincho
p395
sg15
I400
sg16
g12
sg17
g12
sg18
V/Library/Fonts/Microsoft/MS Mincho.ttf
p396
sg20
g21
sbag1
(g8
g3
NtRp397
(dp398
g11
g12
sg13
VTekton Pro
p399
sg15
I700
sg16
g12
sg17
g12
sg18
V/Library/Fonts/TektonPro-BoldExt.otf
p400
sg20
g21
sbag1
(g8
g3
NtRp401
(dp402
g11
g32
sg13
VChaparral Pro
p403
sg15
I400
sg16
g12
sg17
g12
sg18
V/Library/Fonts/ChaparralPro-Italic.otf
p404
sg20
g21
sbag1
(g8
g3
NtRp405
(dp406
g11
g12
sg13
VComic Sans MS
p407
sg15
I700
sg16
g12
sg17
g12
sg18
V/Library/Fonts/Comic Sans MS Bold.ttf
p408
sg20
g21
sbag1
(g8
g3
NtRp409
(dp410
g11
g12
sg13
VArno Pro
p411
sg15
I400
sg16
g12
sg17
g12
sg18
V/Library/Fonts/ArnoPro-SmText.otf
p412
sg20
g21
sbag1
(g8
g3
NtRp413
(dp414
g11
g12
sg13
VArno Pro
p415
sg15
I700
sg16
g12
sg17
g12
sg18
V/Library/Fonts/ArnoPro-SmbdSmText.otf
p416
sg20
g21
sbag1
(g8
g3
NtRp417
(dp418
g11
g32
sg13
VAdobe Garamond Pro
p419
sg15
I700
sg16
g12
sg17
g12
sg18
V/Library/Fonts/AGaramondPro-BoldItalic.otf
p420
sg20
g21
sbag1
(g8
g3
NtRp421
(dp422
g11
g12
sg13
VSTIXNonUnicode
p423
sg15
I700
sg16
g12
sg17
g12
sg18
V/Library/Fonts/STIXNonUniBol.otf
p424
sg20
g21
sbag1
(g8
g3
NtRp425
(dp426
g11
g12
sg13
VWebdings
p427
sg15
I400
sg16
g12
sg17
g12
sg18
V/Library/Fonts/Webdings.ttf
p428
sg20
g21
sbag1
(g8
g3
NtRp429
(dp430
g11
g12
sg13
VApple Braille
p431
sg15
I400
sg16
g12
sg17
g12
sg18
V/System/Library/Fonts/Apple Braille Pinpoint 6 Dot.ttf
p432
sg20
g21
sbag1
(g8
g3
NtRp433
(dp434
g11
g12
sg13
VSymbol
p435
sg15
I400
sg16
g12
sg17
g12
sg18
V/System/Library/Fonts/Symbol.ttf
p436
sg20
g21
sbag1
(g8
g3
NtRp437
(dp438
g11
g32
sg13
VCMU Concrete
p439
sg15
I700
sg16
g12
sg17
g12
sg18
V/Users/jer/Library/Fonts/cmunobi.otf
p440
sg20
g21
sbag1
(g8
g3
NtRp441
(dp442
g11
g12
sg13
VSTHeiti
p443
sg15
I400
sg16
g12
sg17
g12
sg18
V/Library/Fonts/\u534e\u6587\u7ec6\u9ed1.ttf
p444
sg20
g21
sbag1
(g8
g3
NtRp445
(dp446
g11
g12
sg13
VKozuka Gothic Pro
p447
sg15
I700
sg16
g12
sg17
g12
sg18
V/Library/Fonts/KozGoPro-Heavy.otf
p448
sg20
g21
sbag1
(g8
g3
NtRp449
(dp450
g11
g32
sg13
VFranklin Gothic Book
p451
sg15
I400
sg16
g12
sg17
g12
sg18
V/Library/Fonts/Microsoft/Franklin Gothic Book Italic.ttf
p452
sg20
g21
sbag1
(g8
g3
NtRp453
(dp454
g11
g32
sg13
VArno Pro
p455
sg15
I700
sg16
g12
sg17
g12
sg18
V/Library/Fonts/ArnoPro-SmbdItalic.otf
p456
sg20
g21
sbag1
(g8
g3
NtRp457
(dp458
g11
g12
sg13
VSystem Font
p459
sg15
I400
sg16
g12
sg17
g12
sg18
V/System/Library/Fonts/SFNSText-RegularItalicG1.otf
p460
sg20
g21
sbag1
(g8
g3
NtRp461
(dp462
g11
g32
sg13
VPalatino Linotype
p463
sg15
I700
sg16
g12
sg17
g12
sg18
V/Library/Fonts/Microsoft/Palatino Linotype Bold Italic.ttf
p464
sg20
g21
sbag1
(g8
g3
NtRp465
(dp466
g11
g12
sg13
VSTIXIntegralsUpSm
p467
sg15
I400
sg16
g12
sg17
g12
sg18
V/Library/Fonts/STIXIntUpSmReg.otf
p468
sg20
g21
sbag1
(g8
g3
NtRp469
(dp470
g11
g12
sg13
VMeiryo
p471
sg15
I400
sg16
g12
sg17
g12
sg18
V/Library/Fonts/Microsoft/Meiryo.ttf
p472
sg20
g21
sbag1
(g8
g3
NtRp473
(dp474
g11
g32
sg13
VMinion Pro
p475
sg15
I500
sg16
g12
sg17
g12
sg18
V/Library/Fonts/MinionPro-MediumIt.otf
p476
sg20
g21
sbag1
(g8
g3
NtRp477
(dp478
g11
g12
sg13
VKozuka Mincho Pro
p479
sg15
I400
sg16
g12
sg17
g12
sg18
V/Library/Fonts/KozMinPro-Regular.otf
p480
sg20
g21
sbag1
(g8
g3
NtRp481
(dp482
g11
g32
sg13
VCourier New
p483
sg15
I400
sg16
g12
sg17
g12
sg18
V/Library/Fonts/Courier New Italic.ttf
p484
sg20
g21
sbag1
(g8
g3
NtRp485
(dp486
g11
g12
sg13
VArial Black
p487
sg15
I900
sg16
g12
sg17
g12
sg18
V/Library/Fonts/Arial Black.ttf
p488
sg20
g21
sbag1
(g8
g3
NtRp489
(dp490
g11
g32
sg13
VMyriad Pro
p491
sg15
I700
sg16
g12
sg17
g12
sg18
V/Library/Fonts/MyriadPro-SemiboldIt.otf
p492
sg20
g21
sbag1
(g8
g3
NtRp493
(dp494
g11
g32
sg13
VSTIXGeneral
p495
sg15
I400
sg16
g12
sg17
g12
sg18
V/Library/Fonts/STIXGeneralItalic.otf
p496
sg20
g21
sbag1
(g8
g3
NtRp497
(dp498
g11
g12
sg13
VCMU Bright
p499
sg15
I500
sg16
g12
sg17
g12
sg18
V/Users/jer/Library/Fonts/cmunbmr.otf
p500
sg20
g21
sbag1
(g8
g3
NtRp501
(dp502
g11
g32
sg13
VMyriad Pro
p503
sg15
I700
sg16
g183
sg17
g12
sg18
V/Library/Fonts/MyriadPro-BoldCondIt.otf
p504
sg20
g21
sbag1
(g8
g3
NtRp505
(dp506
g11
g12
sg13
VSTIXSizeFourSym
p507
sg15
I400
sg16
g12
sg17
g12
sg18
V/Library/Fonts/STIXSizFourSymReg.otf
p508
sg20
g21
sbag1
(g8
g3
NtRp509
(dp510
g11
g12
sg13
VGill Sans MT
p511
sg15
I400
sg16
g12
sg17
g12
sg18
V/Library/Fonts/Microsoft/Gill Sans MT.ttf
p512
sg20
g21
sbag1
(g8
g3
NtRp513
(dp514
g11
g12
sg13
VNueva Std
p515
sg15
I400
sg16
g183
sg17
g12
sg18
V/Library/Fonts/NuevaStd-Cond.otf
p516
sg20
g21
sbag1
(g8
g3
NtRp517
(dp518
g11
g32
sg13
VTimes New Roman
p519
sg15
I700
sg16
g12
sg17
g12
sg18
V/Library/Fonts/Microsoft/Times New Roman Bold Italic.ttf
p520
sg20
g21
sbag1
(g8
g3
NtRp521
(dp522
g11
g12
sg13
VWingdings 3
p523
sg15
I400
sg16
g12
sg17
g12
sg18
V/Library/Fonts/Microsoft/Wingdings 3.ttf
p524
sg20
g21
sbag1
(g8
g3
NtRp525
(dp526
g11
g12
sg13
VConsolas
p527
sg15
I400
sg16
g12
sg17
g12
sg18
V/Library/Fonts/Microsoft/Consolas.ttf
p528
sg20
g21
sbag1
(g8
g3
NtRp529
(dp530
g11
g32
sg13
VPerpetua
p531
sg15
I400
sg16
g12
sg17
g12
sg18
V/Library/Fonts/Microsoft/Perpetua Italic.ttf
p532
sg20
g21
sbag1
(g8
g3
NtRp533
(dp534
g11
g12
sg13
VComic Sans MS
p535
sg15
I400
sg16
g12
sg17
g12
sg18
V/Library/Fonts/Comic Sans MS.ttf
p536
sg20
g21
sbag1
(g8
g3
NtRp537
(dp538
g11
g12
sg13
VPMingLiU
p539
sg15
I400
sg16
g12
sg17
g12
sg18
V/Library/Fonts/Microsoft/PMingLiU.ttf
p540
sg20
g21
sbag1
(g8
g3
NtRp541
(dp542
g11
g12
sg13
VArial
p543
sg15
I400
sg16
g12
sg17
g12
sg18
V/Library/Fonts/Microsoft/Arial.ttf
p544
sg20
g21
sbag1
(g8
g3
NtRp545
(dp546
g11
g12
sg13
VSTIXSizeFourSym
p547
sg15
I700
sg16
g12
sg17
g12
sg18
V/Library/Fonts/STIXSizFourSymBol.otf
p548
sg20
g21
sbag1
(g8
g3
NtRp549
(dp550
g11
g12
sg13
VMarlett
p551
sg15
I400
sg16
g12
sg17
g12
sg18
V/Library/Fonts/Microsoft/Marlett.ttf
p552
sg20
g21
sbag1
(g8
g3
NtRp553
(dp554
g11
g12
sg13
VCalibri
p555
sg15
I700
sg16
g12
sg17
g12
sg18
V/Library/Fonts/Microsoft/Calibri Bold.ttf
p556
sg20
g21
sbag1
(g8
g3
NtRp557
(dp558
g11
g12
sg13
VYuppy SC
p559
sg15
I400
sg16
g12
sg17
g12
sg18
V/Library/Fonts/YuppySC-Regular.otf
p560
sg20
g21
sbag1
(g8
g3
NtRp561
(dp562
g11
g12
sg13
VMinion Pro
p563
sg15
I500
sg16
g12
sg17
g12
sg18
V/Library/Fonts/MinionPro-Medium.otf
p564
sg20
g21
sbag1
(g8
g3
NtRp565
(dp566
g11
g12
sg13
VWingdings
p567
sg15
I400
sg16
g12
sg17
g12
sg18
V/Library/Fonts/Wingdings.ttf
p568
sg20
g21
sbag1
(g8
g3
NtRp569
(dp570
g11
g12
sg13
VImpact
p571
sg15
I400
sg16
g12
sg17
g12
sg18
V/Library/Fonts/Impact.ttf
p572
sg20
g21
sbag1
(g8
g3
NtRp573
(dp574
g11
g12
sg13
VTahoma
p575
sg15
I700
sg16
g12
sg17
g12
sg18
V/Library/Fonts/Tahoma Bold.ttf
p576
sg20
g21
sbag1
(g8
g3
NtRp577
(dp578
g11
g32
sg13
VGeorgia
p579
sg15
I700
sg16
g12
sg17
g12
sg18
V/Library/Fonts/Georgia Bold Italic.ttf
p580
sg20
g21
sbag1
(g8
g3
NtRp581
(dp582
g11
g12
sg13
VSystem Font
p583
sg15
I400
sg16
g12
sg17
g12
sg18
V/System/Library/Fonts/SFNSDisplay-Heavy.otf
p584
sg20
g21
sbag1
(g8
g3
NtRp585
(dp586
g11
g32
sg13
VArno Pro
p587
sg15
I700
sg16
g12
sg17
g12
sg18
V/Library/Fonts/ArnoPro-BoldItalicCaption.otf
p588
sg20
g21
sbag1
(g8
g3
NtRp589
(dp590
g11
g12
sg13
VHoefler Text
p591
sg15
I400
sg16
g12
sg17
g12
sg18
V/Library/Fonts/Hoefler Text Ornaments.ttf
p592
sg20
g21
sbag1
(g8
g3
NtRp593
(dp594
g11
g12
sg13
VSystem Font
p595
sg15
I400
sg16
g12
sg17
g12
sg18
V/System/Library/Fonts/SFNSText-HeavyItalic.otf
p596
sg20
g21
sbag1
(g8
g3
NtRp597
(dp598
g11
g12
sg13
VRosewood Std
p599
sg15
I400
sg16
g12
sg17
g12
sg18
V/Library/Fonts/RosewoodStd-Regular.otf
p600
sg20
g21
sbag1
(g8
g3
NtRp601
(dp602
g11
g12
sg13
VSystem Font
p603
sg15
I400
sg16
g12
sg17
g12
sg18
V/System/Library/Fonts/SFNSDisplay-Bold.otf
p604
sg20
g21
sbag1
(g8
g3
NtRp605
(dp606
g11
g12
sg13
VPilGi
p607
sg15
I400
sg16
g12
sg17
g12
sg18
V/Library/Fonts/Pilgiche.ttf
p608
sg20
g21
sbag1
(g8
g3
NtRp609
(dp610
g11
g32
sg13
VCMU Concrete
p611
sg15
I400
sg16
g12
sg17
g12
sg18
V/Users/jer/Library/Fonts/cmunoti.otf
p612
sg20
g21
sbag1
(g8
g3
NtRp613
(dp614
g11
g12
sg13
VCMU Bright
p615
sg15
I700
sg16
g12
sg17
g12
sg18
V/Users/jer/Library/Fonts/cmunbsr.otf
p616
sg20
g21
sbag1
(g8
g3
NtRp617
(dp618
g11
g32
sg13
VArno Pro
p619
sg15
I400
sg16
g12
sg17
g12
sg18
V/Library/Fonts/ArnoPro-ItalicCaption.otf
p620
sg20
g21
sbag1
(g8
g3
NtRp621
(dp622
g11
g32
sg13
VVerdana
p623
sg15
I400
sg16
g12
sg17
g12
sg18
V/Library/Fonts/Microsoft/Verdana Italic.ttf
p624
sg20
g21
sbag1
(g8
g3
NtRp625
(dp626
g11
g12
sg13
VYuGothic
p627
sg15
I500
sg16
g12
sg17
g12
sg18
V/Library/Fonts/Yu Gothic Medium.otf
p628
sg20
g21
sbag1
(g8
g3
NtRp629
(dp630
g11
g41
sg13
VCMU Bright
p631
sg15
I400
sg16
g12
sg17
g12
sg18
V/Users/jer/Library/Fonts/cmunbmo.otf
p632
sg20
g21
sbag1
(g8
g3
NtRp633
(dp634
g11
g32
sg13
VLetter Gothic Std
p635
sg15
I700
sg16
g12
sg17
g12
sg18
V/Library/Fonts/LetterGothicStd-BoldSlanted.otf
p636
sg20
g21
sbag1
(g8
g3
NtRp637
(dp638
g11
g32
sg13
VNueva Std
p639
sg15
I400
sg16
g183
sg17
g12
sg18
V/Library/Fonts/NuevaStd-CondItalic.otf
p640
sg20
g21
sbag1
(g8
g3
NtRp641
(dp642
g11
g32
sg13
VArial
p643
sg15
I400
sg16
g12
sg17
g12
sg18
V/Library/Fonts/Microsoft/Arial Italic.ttf
p644
sg20
g21
sbag1
(g8
g3
NtRp645
(dp646
g11
g12
sg13
VZapf Dingbats
p647
sg15
I400
sg16
g12
sg17
g12
sg18
V/System/Library/Fonts/ZapfDingbats.ttf
p648
sg20
g21
sbag1
(g8
g3
NtRp649
(dp650
g11
g32
sg13
VCalibri
p651
sg15
I700
sg16
g12
sg17
g12
sg18
V/Library/Fonts/Microsoft/Calibri Bold Italic.ttf
p652
sg20
g21
sbag1
(g8
g3
NtRp653
(dp654
g11
g32
sg13
VCorbel
p655
sg15
I700
sg16
g12
sg17
g12
sg18
V/Library/Fonts/Microsoft/Corbel Bold Italic.ttf
p656
sg20
g21
sbag1
(g8
g3
NtRp657
(dp658
g11
g12
sg13
VCMU Concrete
p659
sg15
I500
sg16
g12
sg17
g12
sg18
V/Users/jer/Library/Fonts/cmunorm.otf
p660
sg20
g21
sbag1
(g8
g3
NtRp661
(dp662
g11
g12
sg13
VAdobe Garamond Pro
p663
sg15
I700
sg16
g12
sg17
g12
sg18
V/Library/Fonts/AGaramondPro-Bold.otf
p664
sg20
g21
sbag1
(g8
g3
NtRp665
(dp666
g11
g12
sg13
VStencil Std
p667
sg15
I700
sg16
g12
sg17
g12
sg18
V/Library/Fonts/StencilStd.otf
p668
sg20
g21
sbag1
(g8
g3
NtRp669
(dp670
g11
g12
sg13
VArno Pro
p671
sg15
I400
sg16
g12
sg17
g12
sg18
V/Library/Fonts/ArnoPro-Regular.otf
p672
sg20
g21
sbag1
(g8
g3
NtRp673
(dp674
g11
g12
sg13
VLuminari
p675
sg15
I400
sg16
g12
sg17
g12
sg18
V/Library/Fonts/Luminari.ttf
p676
sg20
g21
sbag1
(g8
g3
NtRp677
(dp678
g11
g12
sg13
VMyriad Pro
p679
sg15
I400
sg16
g12
sg17
g12
sg18
V/Library/Fonts/MyriadPro-Regular.otf
p680
sg20
g21
sbag1
(g8
g3
NtRp681
(dp682
g11
g12
sg13
VMyriad Pro
p683
sg15
I400
sg16
g183
sg17
g12
sg18
V/Library/Fonts/MyriadPro-Cond.otf
p684
sg20
g21
sbag1
(g8
g3
NtRp685
(dp686
g11
g12
sg13
VCMU Sans Serif
p687
sg15
I700
sg16
g12
sg17
g12
sg18
V/Users/jer/Library/Fonts/cmunsx.otf
p688
sg20
g21
sbag1
(g8
g3
NtRp689
(dp690
g11
g32
sg13
VTrebuchet MS
p691
sg15
I700
sg16
g12
sg17
g12
sg18
V/Library/Fonts/Trebuchet MS Bold Italic.ttf
p692
sg20
g21
sbag1
(g8
g3
NtRp693
(dp694
g11
g12
sg13
VArno Pro
p695
sg15
I700
sg16
g12
sg17
g12
sg18
V/Library/Fonts/ArnoPro-BoldDisplay.otf
p696
sg20
g21
sbag1
(g8
g3
NtRp697
(dp698
g11
g12
sg13
VSTIXIntegralsSm
p699
sg15
I700
sg16
g12
sg17
g12
sg18
V/Library/Fonts/STIXIntSmBol.otf
p700
sg20
g21
sbag1
(g8
g3
NtRp701
(dp702
g11
g12
sg13
VMeiryo
p703
sg15
I700
sg16
g12
sg17
g12
sg18
V/Library/Fonts/Microsoft/Meiryo Bold.ttf
p704
sg20
g21
sbag1
(g8
g3
NtRp705
(dp706
g11
g12
sg13
VBradley Hand
p707
sg15
I700
sg16
g12
sg17
g12
sg18
V/Library/Fonts/Bradley Hand Bold.ttf
p708
sg20
g21
sbag1
(g8
g3
NtRp709
(dp710
g11
g12
sg13
VCooper Std
p711
sg15
I900
sg16
g12
sg17
g12
sg18
V/Library/Fonts/CooperBlackStd.otf
p712
sg20
g21
sbag1
(g8
g3
NtRp713
(dp714
g11
g12
sg13
VBell Gothic Std
p715
sg15
I700
sg16
g12
sg17
g12
sg18
V/Library/Fonts/BellGothicStd-Bold.otf
p716
sg20
g21
sbag1
(g8
g3
NtRp717
(dp718
g11
g12
sg13
VKozuka Gothic Pro
p719
sg15
I400
sg16
g12
sg17
g12
sg18
V/Library/Fonts/KozGoPro-ExtraLight.otf
p720
sg20
g21
sbag1
(g8
g3
NtRp721
(dp722
g11
g32
sg13
VTw Cen MT
p723
sg15
I400
sg16
g12
sg17
g12
sg18
V/Library/Fonts/Microsoft/Tw Cen MT Italic.ttf
p724
sg20
g21
sbag1
(g8
g3
NtRp725
(dp726
g11
g12
sg13
VBookshelf Symbol 7
p727
sg15
I400
sg16
g12
sg17
g12
sg18
V/Library/Fonts/Microsoft/Bookshelf Symbol 7.ttf
p728
sg20
g21
sbag1
(g8
g3
NtRp729
(dp730
g11
g32
sg13
VChaparral Pro
p731
sg15
I700
sg16
g12
sg17
g12
sg18
V/Library/Fonts/ChaparralPro-BoldIt.otf
p732
sg20
g21
sbag1
(g8
g3
NtRp733
(dp734
g11
g41
sg13
VCMU Bright
p735
sg15
I700
sg16
g12
sg17
g12
sg18
V/Users/jer/Library/Fonts/cmunbxo.otf
p736
sg20
g21
sbag1
(g8
g3
NtRp737
(dp738
g11
g12
sg13
VConsolas
p739
sg15
I700
sg16
g12
sg17
g12
sg18
V/Library/Fonts/Microsoft/Consolas Bold.ttf
p740
sg20
g21
sbag1
(g8
g3
NtRp741
(dp742
g11
g12
sg13
VSTFangsong
p743
sg15
I400
sg16
g12
sg17
g12
sg18
V/Library/Fonts/\u534e\u6587\u4eff\u5b8b.ttf
p744
sg20
g21
sbag1
(g8
g3
NtRp745
(dp746
g11
g12
sg13
VArno Pro
p747
sg15
I700
sg16
g12
sg17
g12
sg18
V/Library/Fonts/ArnoPro-SmbdDisplay.otf
p748
sg20
g21
sbag1
(g8
g3
NtRp749
(dp750
g11
g12
sg13
VSTHeiti
p751
sg15
I400
sg16
g12
sg17
g12
sg18
V/Library/Fonts/\u534e\u6587\u9ed1\u4f53.ttf
p752
sg20
g21
sbag1
(g8
g3
NtRp753
(dp754
g11
g12
sg13
VFarisi
p755
sg15
I400
sg16
g12
sg17
g12
sg18
V/Library/Fonts/Farisi.ttf
p756
sg20
g21
sbag1
(g8
g3
NtRp757
(dp758
g11
g32
sg13
VArno Pro
p759
sg15
I700
sg16
g12
sg17
g12
sg18
V/Library/Fonts/ArnoPro-SmbdItalicSmText.otf
p760
sg20
g21
sbag1
(g8
g3
NtRp761
(dp762
g11
g12
sg13
VBodoni 72 Smallcaps
p763
sg15
I400
sg16
g12
sg17
g12
sg18
V/Library/Fonts/Bodoni 72 Smallcaps Book.ttf
p764
sg20
g21
sbag1
(g8
g3
NtRp765
(dp766
g11
g12
sg13
VSystem Font
p767
sg15
I400
sg16
g12
sg17
g12
sg18
V/System/Library/Fonts/SFNSText-Bold.otf
p768
sg20
g21
sbag1
(g8
g3
NtRp769
(dp770
g11
g12
sg13
VTrebuchet MS
p771
sg15
I700
sg16
g12
sg17
g12
sg18
V/Library/Fonts/Trebuchet MS Bold.ttf
p772
sg20
g21
sbag1
(g8
g3
NtRp773
(dp774
g11
g32
sg13
VCMU Serif Upright Italic
p775
sg15
I400
sg16
g12
sg17
g12
sg18
V/Users/jer/Library/Fonts/cmunui.otf
p776
sg20
g21
sbag1
(g8
g3
NtRp777
(dp778
g11
g32
sg13
VSTIXNonUnicode
p779
sg15
I700
sg16
g12
sg17
g12
sg18
V/Library/Fonts/STIXNonUniBolIta.otf
p780
sg20
g21
sbag1
(g8
g3
NtRp781
(dp782
g11
g12
sg13
VBrush Script Std
p783
sg15
I500
sg16
g12
sg17
g12
sg18
V/Library/Fonts/BrushScriptStd.otf
p784
sg20
g21
sbag1
(g8
g3
NtRp785
(dp786
g11
g12
sg13
VWawati SC
p787
sg15
I400
sg16
g12
sg17
g12
sg18
V/Library/Fonts/WawaSC-Regular.otf
p788
sg20
g21
sbag1
(g8
g3
NtRp789
(dp790
g11
g12
sg13
VSystem Font
p791
sg15
I400
sg16
g12
sg17
g12
sg18
V/System/Library/Fonts/SFNSText-Semibold.otf
p792
sg20
g21
sbag1
(g8
g3
NtRp793
(dp794
g11
g12
sg13
VAdobe Caslon Pro
p795
sg15
I700
sg16
g12
sg17
g12
sg18
V/Library/Fonts/ACaslonPro-Bold.otf
p796
sg20
g21
sbag1
(g8
g3
NtRp797
(dp798
g11
g12
sg13
VArno Pro
p799
sg15
I400
sg16
g12
sg17
g12
sg18
V/Library/Fonts/ArnoPro-Display.otf
p800
sg20
g21
sbag1
(g8
g3
NtRp801
(dp802
g11
g12
sg13
VSTIXIntegralsSm
p803
sg15
I400
sg16
g12
sg17
g12
sg18
V/Library/Fonts/STIXIntSmReg.otf
p804
sg20
g21
sbag1
(g8
g3
NtRp805
(dp806
g11
g12
sg13
VMyriad Pro
p807
sg15
I700
sg16
g183
sg17
g12
sg18
V/Library/Fonts/MyriadPro-BoldCond.otf
p808
sg20
g21
sbag1
(g8
g3
NtRp809
(dp810
g11
g32
sg13
VAdobe Caslon Pro
p811
sg15
I400
sg16
g12
sg17
g12
sg18
V/Library/Fonts/ACaslonPro-Italic.otf
p812
sg20
g21
sbag1
(g8
g3
NtRp813
(dp814
g11
g12
sg13
VGeorgia
p815
sg15
I700
sg16
g12
sg17
g12
sg18
V/Library/Fonts/Georgia Bold.ttf
p816
sg20
g21
sbag1
(g8
g3
NtRp817
(dp818
g11
g12
sg13
VConstantia
p819
sg15
I400
sg16
g12
sg17
g12
sg18
V/Library/Fonts/Microsoft/Constantia.ttf
p820
sg20
g21
sbag1
(g8
g3
NtRp821
(dp822
g11
g12
sg13
VChalkduster
p823
sg15
I400
sg16
g12
sg17
g12
sg18
V/Library/Fonts/Chalkduster.ttf
p824
sg20
g21
sbag1
(g8
g3
NtRp825
(dp826
g11
g12
sg13
VWeibei TC
p827
sg15
I700
sg16
g12
sg17
g12
sg18
V/Library/Fonts/WeibeiTC-Bold.otf
p828
sg20
g21
sbag1
(g8
g3
NtRp829
(dp830
g11
g32
sg13
VMinion Pro
p831
sg15
I700
sg16
g12
sg17
g12
sg18
V/Library/Fonts/MinionPro-BoldIt.otf
p832
sg20
g21
sbag1
(g8
g3
NtRp833
(dp834
g11
g12
sg13
VArno Pro
p835
sg15
I700
sg16
g12
sg17
g12
sg18
V/Library/Fonts/ArnoPro-BoldSubhead.otf
p836
sg20
g21
sbag1
(g8
g3
NtRp837
(dp838
g11
g12
sg13
VAdobe Caslon Pro
p839
sg15
I400
sg16
g12
sg17
g12
sg18
V/Library/Fonts/ACaslonPro-Regular.otf
p840
sg20
g21
sbag1
(g8
g3
NtRp841
(dp842
g11
g12
sg13
VSTIXIntegralsUp
p843
sg15
I400
sg16
g12
sg17
g12
sg18
V/Library/Fonts/STIXIntUpReg.otf
p844
sg20
g21
sbag1
(g8
g3
NtRp845
(dp846
g11
g12
sg13
VMesquite Std
p847
sg15
I500
sg16
g12
sg17
g12
sg18
V/Library/Fonts/MesquiteStd.otf
p848
sg20
g21
sbag1
(g8
g3
NtRp849
(dp850
g11
g12
sg13
VBig Caslon
p851
sg15
I500
sg16
g12
sg17
g12
sg18
V/Library/Fonts/BigCaslon.ttf
p852
sg20
g21
sbag1
(g8
g3
NtRp853
(dp854
g11
g32
sg13
VCMU Serif
p855
sg15
I400
sg16
g12
sg17
g12
sg18
V/Users/jer/Library/Fonts/cmunti.otf
p856
sg20
g21
sbag1
(g8
g3
NtRp857
(dp858
g11
g12
sg13
VSystem Font
p859
sg15
I400
sg16
g12
sg17
g12
sg18
V/System/Library/Fonts/SFNSText-Heavy.otf
p860
sg20
g21
sbag1
(g8
g3
NtRp861
(dp862
g11
g12
sg13
VAyuthaya
p863
sg15
I400
sg16
g12
sg17
g12
sg18
V/Library/Fonts/Ayuthaya.ttf
p864
sg20
g21
sbag1
(g8
g3
NtRp865
(dp866
g11
g12
sg13
VOrator Std
p867
sg15
I500
sg16
g12
sg17
g12
sg18
V/Library/Fonts/OratorStd.otf
p868
sg20
g21
sbag1
(g8
g3
NtRp869
(dp870
g11
g12
sg13
VBlackoak Std
p871
sg15
I900
sg16
g12
sg17
g12
sg18
V/Library/Fonts/BlackoakStd.otf
p872
sg20
g21
sbag1
(g8
g3
NtRp873
(dp874
g11
g12
sg13
VArno Pro
p875
sg15
I200
sg16
g12
sg17
g12
sg18
V/Library/Fonts/ArnoPro-LightDisplay.otf
p876
sg20
g21
sbag1
(g8
g3
NtRp877
(dp878
g11
g32
sg13
VMinion Pro
p879
sg15
I400
sg16
g12
sg17
g12
sg18
V/Library/Fonts/MinionPro-It.otf
p880
sg20
g21
sbag1
(g8
g3
NtRp881
(dp882
g11
g32
sg13
VArno Pro
p883
sg15
I400
sg16
g12
sg17
g12
sg18
V/Library/Fonts/ArnoPro-Italic.otf
p884
sg20
g21
sbag1
(g8
g3
NtRp885
(dp886
g11
g12
sg13
VMinion Pro
p887
sg15
I700
sg16
g12
sg17
g12
sg18
V/Library/Fonts/MinionPro-Bold.otf
p888
sg20
g21
sbag1
(g8
g3
NtRp889
(dp890
g11
g12
sg13
VWingdings 2
p891
sg15
I400
sg16
g12
sg17
g12
sg18
V/Library/Fonts/Microsoft/Wingdings 2.ttf
p892
sg20
g21
sbag1
(g8
g3
NtRp893
(dp894
g11
g12
sg13
VAndale Mono
p895
sg15
I400
sg16
g12
sg17
g12
sg18
V/Library/Fonts/Andale Mono.ttf
p896
sg20
g21
sbag1
(g8
g3
NtRp897
(dp898
g11
g32
sg13
VConsolas
p899
sg15
I400
sg16
g12
sg17
g12
sg18
V/Library/Fonts/Microsoft/Consolas Italic.ttf
p900
sg20
g21
sbag1
(g8
g3
NtRp901
(dp902
g11
g12
sg13
VLetter Gothic Std
p903
sg15
I700
sg16
g12
sg17
g12
sg18
V/Library/Fonts/LetterGothicStd-Bold.otf
p904
sg20
g21
sbag1
(g8
g3
NtRp905
(dp906
g11
g12
sg13
VSilom
p907
sg15
I400
sg16
g12
sg17
g12
sg18
V/Library/Fonts/Silom.ttf
p908
sg20
g21
sbag1
(g8
g3
NtRp909
(dp910
g11
g32
sg13
VCMU Serif Extra
p911
sg15
I500
sg16
g12
sg17
g12
sg18
V/Users/jer/Library/Fonts/cmunsl.otf
p912
sg20
g21
sbag1
(g8
g3
NtRp913
(dp914
g11
g12
sg13
VWeibei SC
p915
sg15
I700
sg16
g12
sg17
g12
sg18
V/Library/Fonts/WeibeiSC-Bold.otf
p916
sg20
g21
sbag1
(g8
g3
NtRp917
(dp918
g11
g12
sg13
VCMU Serif Extra
p919
sg15
I700
sg16
g12
sg17
g12
sg18
V/Users/jer/Library/Fonts/cmunrb.otf
p920
sg20
g21
sbag1
(g8
g3
NtRp921
(dp922
g11
g32
sg13
VCalibri
p923
sg15
I400
sg16
g12
sg17
g12
sg18
V/Library/Fonts/Microsoft/Calibri Italic.ttf
p924
sg20
g21
sbag1
(g8
g3
NtRp925
(dp926
g11
g12
sg13
VCandara
p927
sg15
I400
sg16
g12
sg17
g12
sg18
V/Library/Fonts/Microsoft/Candara.ttf
p928
sg20
g21
sbag1
(g8
g3
NtRp929
(dp930
g11
g12
sg13
VTekton Pro
p931
sg15
I700
sg16
g183
sg17
g12
sg18
V/Library/Fonts/TektonPro-BoldCond.otf
p932
sg20
g21
sbag1
(g8
g3
NtRp933
(dp934
g11
g12
sg13
VTeamViewer12
p935
sg15
I400
sg16
g12
sg17
g12
sg18
V/Library/Fonts/TeamViewer12.otf
p936
sg20
g21
sbag1
(g8
g3
NtRp937
(dp938
g11
g12
sg13
VGulim
p939
sg15
I400
sg16
g12
sg17
g12
sg18
V/Library/Fonts/Microsoft/Gulim.ttf
p940
sg20
g21
sbag1
(g8
g3
NtRp941
(dp942
g11
g12
sg13
VLao Sangam MN
p943
sg15
I400
sg16
g12
sg17
g12
sg18
V/Library/Fonts/Lao Sangam MN.ttf
p944
sg20
g21
sbag1
(g8
g3
NtRp945
(dp946
g11
g12
sg13
VBodoni Ornaments
p947
sg15
I400
sg16
g12
sg17
g12
sg18
V/Library/Fonts/Bodoni Ornaments.ttf
p948
sg20
g21
sbag1
(g8
g3
NtRp949
(dp950
g11
g32
sg13
VCambria
p951
sg15
I700
sg16
g12
sg17
g12
sg18
V/Library/Fonts/Microsoft/Cambria Bold Italic.ttf
p952
sg20
g21
sbag1
(g8
g3
NtRp953
(dp954
g11
g12
sg13
VGabriola
p955
sg15
I400
sg16
g12
sg17
g12
sg18
V/Library/Fonts/Microsoft/Gabriola.ttf
p956
sg20
g21
sbag1
(g8
g3
NtRp957
(dp958
g11
g12
sg13
VPlantagenet Cherokee
p959
sg15
I400
sg16
g12
sg17
g12
sg18
V/Library/Fonts/PlantagenetCherokee.ttf
p960
sg20
g21
sbag1
(g8
g3
NtRp961
(dp962
g11
g32
sg13
VAdobe Caslon Pro
p963
sg15
I700
sg16
g12
sg17
g12
sg18
V/Library/Fonts/ACaslonPro-BoldItalic.otf
p964
sg20
g21
sbag1
(g8
g3
NtRp965
(dp966
g11
g32
sg13
VAdobe Caslon Pro
p967
sg15
I700
sg16
g12
sg17
g12
sg18
V/Library/Fonts/ACaslonPro-SemiboldItalic.otf
p968
sg20
g21
sbag1
(g8
g3
NtRp969
(dp970
g11
g12
sg13
VGaramond Premier Pro
p971
sg15
I700
sg16
g12
sg17
g12
sg18
V/Library/Fonts/GaramondPremrPro-Smbd.otf
p972
sg20
g21
sbag1
(g8
g3
NtRp973
(dp974
g11
g32
sg13
VArno Pro
p975
sg15
I400
sg16
g12
sg17
g12
sg18
V/Library/Fonts/ArnoPro-ItalicSubhead.otf
p976
sg20
g21
sbag1
(g8
g3
NtRp977
(dp978
g11
g12
sg13
VCMU Serif
p979
sg15
I500
sg16
g12
sg17
g12
sg18
V/Users/jer/Library/Fonts/cmunrm.otf
p980
sg20
g21
sbag1
(g8
g3
NtRp981
(dp982
g11
g32
sg13
VCMU Typewriter Text
p983
sg15
I700
sg16
g12
sg17
g12
sg18
V/Users/jer/Library/Fonts/cmuntx.otf
p984
sg20
g21
sbag1
(g8
g3
NtRp985
(dp986
g11
g12
sg13
VOCR A Std
p987
sg15
I400
sg16
g12
sg17
g12
sg18
V/Library/Fonts/OCRAStd.otf
p988
sg20
g21
sbag1
(g8
g3
NtRp989
(dp990
g11
g12
sg13
VBickham Script Pro
p991
sg15
I400
sg16
g12
sg17
g12
sg18
V/Library/Fonts/BickhamScriptPro-Regular.otf
p992
sg20
g21
sbag1
(g8
g3
NtRp993
(dp994
g11
g12
sg13
VArno Pro
p995
sg15
I400
sg16
g12
sg17
g12
sg18
V/Library/Fonts/ArnoPro-Subhead.otf
p996
sg20
g21
sbag1
(g8
g3
NtRp997
(dp998
g11
g12
sg13
VSTIXSizeThreeSym
p999
sg15
I400
sg16
g12
sg17
g12
sg18
V/Library/Fonts/STIXSizThreeSymReg.otf
p1000
sg20
g21
sbag1
(g8
g3
NtRp1001
(dp1002
g11
g12
sg13
VDIN Condensed
p1003
sg15
I700
sg16
g183
sg17
g12
sg18
V/Library/Fonts/DIN Condensed Bold.ttf
p1004
sg20
g21
sbag1
(g8
g3
NtRp1005
(dp1006
g11
g12
sg13
VAppleGothic
p1007
sg15
I400
sg16
g12
sg17
g12
sg18
V/Library/Fonts/AppleGothic.ttf
p1008
sg20
g21
sbag1
(g8
g3
NtRp1009
(dp1010
g11
g12
sg13
VArial Narrow
p1011
sg15
I400
sg16
g183
sg17
g12
sg18
V/Library/Fonts/Arial Narrow.ttf
p1012
sg20
g21
sbag1
(g8
g3
NtRp1013
(dp1014
g11
g32
sg13
VTimes New Roman
p1015
sg15
I500
sg16
g12
sg17
g12
sg18
V/Library/Fonts/Microsoft/Times New Roman Italic.ttf
p1016
sg20
g21
sbag1
(g8
g3
NtRp1017
(dp1018
g11
g12
sg13
VGaramond Premier Pro
p1019
sg15
I400
sg16
g12
sg17
g12
sg18
V/Library/Fonts/GaramondPremrPro.otf
p1020
sg20
g21
sbag1
(g8
g3
NtRp1021
(dp1022
g11
g41
sg13
VCMU Typewriter Text
p1023
sg15
I200
sg16
g12
sg17
g12
sg18
V/Users/jer/Library/Fonts/cmunbto.otf
p1024
sg20
g21
sbag1
(g8
g3
NtRp1025
(dp1026
g11
g12
sg13
VSystem Font
p1027
sg15
I400
sg16
g12
sg17
g12
sg18
V/System/Library/Fonts/SFNSText-Regular.otf
p1028
sg20
g21
sbag1
(g8
g3
NtRp1029
(dp1030
g11
g32
sg13
VArno Pro
p1031
sg15
I700
sg16
g12
sg17
g12
sg18
V/Library/Fonts/ArnoPro-SmbdItalicDisplay.otf
p1032
sg20
g21
sbag1
(g8
g3
NtRp1033
(dp1034
g11
g12
sg13
VArial Narrow
p1035
sg15
I700
sg16
g183
sg17
g12
sg18
V/Library/Fonts/Arial Narrow Bold.ttf
p1036
sg20
g21
sbag1
(g8
g3
NtRp1037
(dp1038
g11
g12
sg13
VSystem Font
p1039
sg15
I400
sg16
g12
sg17
g12
sg18
V/System/Library/Fonts/SFNSText-RegularItalic.otf
p1040
sg20
g21
sbag1
(g8
g3
NtRp1041
(dp1042
g11
g12
sg13
VGeorgia
p1043
sg15
I400
sg16
g12
sg17
g12
sg18
V/Library/Fonts/Georgia.ttf
p1044
sg20
g21
sbag1
(g8
g3
NtRp1045
(dp1046
g11
g32
sg13
VNueva Std
p1047
sg15
I700
sg16
g183
sg17
g12
sg18
V/Library/Fonts/NuevaStd-BoldCondItalic.otf
p1048
sg20
g21
sbag1
(g8
g3
NtRp1049
(dp1050
g11
g12
sg13
VCharlemagne Std
p1051
sg15
I700
sg16
g12
sg17
g12
sg18
V/Library/Fonts/CharlemagneStd-Bold.otf
p1052
sg20
g21
sbag1
(g8
g3
NtRp1053
(dp1054
g11
g12
sg13
VPrestige Elite Std
p1055
sg15
I700
sg16
g12
sg17
g12
sg18
V/Library/Fonts/PrestigeEliteStd-Bd.otf
p1056
sg20
g21
sbag1
(g8
g3
NtRp1057
(dp1058
g11
g12
sg13
VConstantia
p1059
sg15
I700
sg16
g12
sg17
g12
sg18
V/Library/Fonts/Microsoft/Constantia Bold.ttf
p1060
sg20
g21
sbag1
(g8
g3
NtRp1061
(dp1062
g11
g12
sg13
VSystem Font
p1063
sg15
I400
sg16
g12
sg17
g12
sg18
V/System/Library/Fonts/SFNSText-BoldG1.otf
p1064
sg20
g21
sbag1
(g8
g3
NtRp1065
(dp1066
g11
g12
sg13
VMinion Pro
p1067
sg15
I400
sg16
g12
sg17
g12
sg18
V/Library/Fonts/MinionPro-Regular.otf
p1068
sg20
g21
sbag1
(g8
g3
NtRp1069
(dp1070
g11
g32
sg13
VArial Narrow
p1071
sg15
I400
sg16
g183
sg17
g12
sg18
V/Library/Fonts/Arial Narrow Italic.ttf
p1072
sg20
g21
sbag1
(g8
g3
NtRp1073
(dp1074
g11
g12
sg13
VArno Pro
p1075
sg15
I700
sg16
g12
sg17
g12
sg18
V/Library/Fonts/ArnoPro-Smbd.otf
p1076
sg20
g21
sbag1
(g8
g3
NtRp1077
(dp1078
g11
g12
sg13
VCMU Typewriter Text
p1079
sg15
I400
sg16
g12
sg17
g12
sg18
V/Users/jer/Library/Fonts/cmuntt.otf
p1080
sg20
g21
sbag1
(g8
g3
NtRp1081
(dp1082
g11
g12
sg13
VArial
p1083
sg15
I700
sg16
g12
sg17
g12
sg18
V/Library/Fonts/Microsoft/Arial Bold.ttf
p1084
sg20
g21
sbag1
(g8
g3
NtRp1085
(dp1086
g11
g12
sg13
VTw Cen MT
p1087
sg15
I700
sg16
g12
sg17
g12
sg18
V/Library/Fonts/Microsoft/Tw Cen MT Bold.ttf
p1088
sg20
g21
sbag1
(g8
g3
NtRp1089
(dp1090
g11
g12
sg13
VSystem Font
p1091
sg15
I400
sg16
g12
sg17
g12
sg18
V/System/Library/Fonts/SFNSDisplay-Semibold.otf
p1092
sg20
g21
sbag1
(g8
g3
NtRp1093
(dp1094
g11
g32
sg13
VBrush Script MT
p1095
sg15
I400
sg16
g12
sg17
g12
sg18
V/Library/Fonts/Microsoft/Brush Script.ttf
p1096
sg20
g21
sbag1
(g8
g3
NtRp1097
(dp1098
g11
g32
sg13
VTw Cen MT
p1099
sg15
I700
sg16
g12
sg17
g12
sg18
V/Library/Fonts/Microsoft/Tw Cen MT Bold Italic.ttf
p1100
sg20
g21
sbag1
(g8
g3
NtRp1101
(dp1102
g11
g12
sg13
VSystem Font
p1103
sg15
I400
sg16
g12
sg17
g12
sg18
V/System/Library/Fonts/SFNSText-RegularItalicG2.otf
p1104
sg20
g21
sbag1
(g8
g3
NtRp1105
(dp1106
g11
g12
sg13
VSTIXVariants
p1107
sg15
I400
sg16
g12
sg17
g12
sg18
V/Library/Fonts/STIXVar.otf
p1108
sg20
g21
sbag1
(g8
g3
NtRp1109
(dp1110
g11
g12
sg13
VMishafi
p1111
sg15
I400
sg16
g12
sg17
g12
sg18
V/Library/Fonts/Mishafi.ttf
p1112
sg20
g21
sbag1
(g8
g3
NtRp1113
(dp1114
g11
g32
sg13
VCandara
p1115
sg15
I700
sg16
g12
sg17
g12
sg18
V/Library/Fonts/Microsoft/Candara Bold Italic.ttf
p1116
sg20
g21
sbag1
(g8
g3
NtRp1117
(dp1118
g11
g12
sg13
VSystem Font
p1119
sg15
I400
sg16
g12
sg17
g12
sg18
V/System/Library/Fonts/SFNSText-BoldItalic.otf
p1120
sg20
g21
sbag1
(g8
g3
NtRp1121
(dp1122
g11
g12
sg13
VSystem Font
p1123
sg15
I400
sg16
g12
sg17
g12
sg18
V/System/Library/Fonts/SFNSText-BoldItalicG1.otf
p1124
sg20
g21
sbag1
(g8
g3
NtRp1125
(dp1126
g11
g12
sg13
VLithos Pro
p1127
sg15
I900
sg16
g12
sg17
g12
sg18
V/Library/Fonts/LithosPro-Black.otf
p1128
sg20
g21
sbag1
(g8
g3
NtRp1129
(dp1130
g11
g12
sg13
VBirch Std
p1131
sg15
I400
sg16
g12
sg17
g12
sg18
V/Library/Fonts/BirchStd.otf
p1132
sg20
g21
sbag1
(g8
g3
NtRp1133
(dp1134
g11
g12
sg13
VCambria Math
p1135
sg15
I400
sg16
g12
sg17
g12
sg18
V/Library/Fonts/Microsoft/Cambria Math.ttf
p1136
sg20
g21
sbag1
(g8
g3
NtRp1137
(dp1138
g11
g12
sg13
VSkia
p1139
sg15
I400
sg16
g12
sg17
g12
sg18
V/Library/Fonts/Skia.ttf
p1140
sg20
g21
sbag1
(g8
g3
NtRp1141
(dp1142
g11
g12
sg13
VKozuka Mincho Pro
p1143
sg15
I700
sg16
g12
sg17
g12
sg18
V/Library/Fonts/KozMinPro-Heavy.otf
p1144
sg20
g21
sbag1
(g8
g3
NtRp1145
(dp1146
g11
g12
sg13
VSystem Font
p1147
sg15
I400
sg16
g12
sg17
g12
sg18
V/System/Library/Fonts/SFNSText-RegularG3.otf
p1148
sg20
g21
sbag1
(g8
g3
NtRp1149
(dp1150
g11
g12
sg13
VArno Pro
p1151
sg15
I700
sg16
g12
sg17
g12
sg18
V/Library/Fonts/ArnoPro-Bold.otf
p1152
sg20
g21
sbag1
(g8
g3
NtRp1153
(dp1154
g11
g12
sg13
VLithos Pro
p1155
sg15
I400
sg16
g12
sg17
g12
sg18
V/Library/Fonts/LithosPro-Regular.otf
p1156
sg20
g21
sbag1
(g8
g3
NtRp1157
(dp1158
g11
g12
sg13
VGiddyup Std
p1159
sg15
I400
sg16
g12
sg17
g12
sg18
V/Library/Fonts/GiddyupStd.otf
p1160
sg20
g21
sbag1
(g8
g3
NtRp1161
(dp1162
g11
g12
sg13
VKozuka Mincho Pro
p1163
sg15
I700
sg16
g12
sg17
g12
sg18
V/Library/Fonts/KozMinPro-Bold.otf
p1164
sg20
g21
sbag1
(g8
g3
NtRp1165
(dp1166
g11
g12
sg13
VCMU Sans Serif
p1167
sg15
I400
sg16
g12
sg17
g12
sg18
V/Users/jer/Library/Fonts/cmunss.otf
p1168
sg20
g21
sbag1
(g8
g3
NtRp1169
(dp1170
g11
g12
sg13
VPerpetua
p1171
sg15
I400
sg16
g12
sg17
g12
sg18
V/Library/Fonts/Microsoft/Perpetua.ttf
p1172
sg20
g21
sbag1
(g8
g3
NtRp1173
(dp1174
g11
g12
sg13
VNueva Std
p1175
sg15
I700
sg16
g183
sg17
g12
sg18
V/Library/Fonts/NuevaStd-BoldCond.otf
p1176
sg20
g21
sbag1
(g8
g3
NtRp1177
(dp1178
g11
g12
sg13
VCambria
p1179
sg15
I700
sg16
g12
sg17
g12
sg18
V/Library/Fonts/Microsoft/Cambria Bold.ttf
p1180
sg20
g21
sbag1
(g8
g3
NtRp1181
(dp1182
g11
g32
sg13
VCourier New
p1183
sg15
I700
sg16
g12
sg17
g12
sg18
V/Library/Fonts/Courier New Bold Italic.ttf
p1184
sg20
g21
sbag1
(g8
g3
NtRp1185
(dp1186
g11
g12
sg13
VArial Rounded MT Bold
p1187
sg15
I700
sg16
g12
sg17
g12
sg18
V/Library/Fonts/Arial Rounded Bold.ttf
p1188
sg20
g21
sbag1
(g8
g3
NtRp1189
(dp1190
g11
g12
sg13
VTrajan Pro
p1191
sg15
I700
sg16
g12
sg17
g12
sg18
V/Library/Fonts/TrajanPro-Bold.otf
p1192
sg20
g21
sbag1
(g8
g3
NtRp1193
(dp1194
g11
g32
sg13
VArno Pro
p1195
sg15
I700
sg16
g12
sg17
g12
sg18
V/Library/Fonts/ArnoPro-SmbdItalicCaption.otf
p1196
sg20
g21
sbag1
(g8
g3
NtRp1197
(dp1198
g11
g32
sg13
VFranklin Gothic Medium
p1199
sg15
I500
sg16
g12
sg17
g12
sg18
V/Library/Fonts/Microsoft/Franklin Gothic Medium Italic.ttf
p1200
sg20
g21
sbag1
(g8
g3
NtRp1201
(dp1202
g11
g12
sg13
VSystem Font
p1203
sg15
I400
sg16
g12
sg17
g12
sg18
V/System/Library/Fonts/SFNSText-BoldG2.otf
p1204
sg20
g21
sbag1
(g8
g3
NtRp1205
(dp1206
g11
g12
sg13
VKozuka Mincho Pro
p1207
sg15
I400
sg16
g12
sg17
g12
sg18
V/Library/Fonts/KozMinPro-Medium.otf
p1208
sg20
g21
sbag1
(g8
g3
NtRp1209
(dp1210
g11
g32
sg13
VConstantia
p1211
sg15
I400
sg16
g12
sg17
g12
sg18
V/Library/Fonts/Microsoft/Constantia Italic.ttf
p1212
sg20
g21
sbag1
(g8
g3
NtRp1213
(dp1214
g11
g12
sg13
VInaiMathi
p1215
sg15
I400
sg16
g12
sg17
g12
sg18
V/Library/Fonts/InaiMathi.ttf
p1216
sg20
g21
sbag1
(g8
g3
NtRp1217
(dp1218
g11
g12
sg13
VCambria
p1219
sg15
I400
sg16
g12
sg17
g12
sg18
V/Library/Fonts/Microsoft/Cambria.ttf
p1220
sg20
g21
sbag1
(g8
g3
NtRp1221
(dp1222
g11
g12
sg13
VPerpetua
p1223
sg15
I700
sg16
g12
sg17
g12
sg18
V/Library/Fonts/Microsoft/Perpetua Bold.ttf
p1224
sg20
g21
sbag1
(g8
g3
NtRp1225
(dp1226
g11
g12
sg13
VBatang
p1227
sg15
I400
sg16
g12
sg17
g12
sg18
V/Library/Fonts/Microsoft/Batang.ttf
p1228
sg20
g21
sbag1
(g8
g3
NtRp1229
(dp1230
g11
g12
sg13
VKozuka Gothic Pro
p1231
sg15
I400
sg16
g12
sg17
g12
sg18
V/Library/Fonts/KozGoPro-Light.otf
p1232
sg20
g21
sbag1
(g8
g3
NtRp1233
(dp1234
g11
g12
sg13
VBickham Script Pro
p1235
sg15
I700
sg16
g12
sg17
g12
sg18
V/Library/Fonts/BickhamScriptPro-Bold.otf
p1236
sg20
g21
sbag1
(g8
g3
NtRp1237
(dp1238
g11
g12
sg13
VMinion Pro
p1239
sg15
I700
sg16
g12
sg17
g12
sg18
V/Library/Fonts/MinionPro-Semibold.otf
p1240
sg20
g21
sbag1
(g8
g3
NtRp1241
(dp1242
g11
g32
sg13
VLetter Gothic Std
p1243
sg15
I400
sg16
g12
sg17
g12
sg18
V/Library/Fonts/LetterGothicStd-Slanted.otf
p1244
sg20
g21
sbag1
(g8
g3
NtRp1245
(dp1246
g11
g32
sg13
VMyriad Pro
p1247
sg15
I700
sg16
g12
sg17
g12
sg18
V/Library/Fonts/MyriadPro-BoldIt.otf
p1248
sg20
g21
sbag1
(g8
g3
NtRp1249
(dp1250
g11
g12
sg13
VSignPainter
p1251
sg15
I400
sg16
g12
sg17
g12
sg18
V/Library/Fonts/SignPainter.otf
p1252
sg20
g21
sbag1
(g8
g3
NtRp1253
(dp1254
g11
g12
sg13
V.Keyboard
p1255
sg15
I400
sg16
g12
sg17
g12
sg18
V/System/Library/Fonts/Keyboard.ttf
p1256
sg20
g21
sbag1
(g8
g3
NtRp1257
(dp1258
g11
g32
sg13
VMinion Pro
p1259
sg15
I700
sg16
g183
sg17
g12
sg18
V/Library/Fonts/MinionPro-BoldCnIt.otf
p1260
sg20
g21
sbag1
(g8
g3
NtRp1261
(dp1262
g11
g32
sg13
VCMU Typewriter Text
p1263
sg15
I400
sg16
g12
sg17
g12
sg18
V/Users/jer/Library/Fonts/cmunit.otf
p1264
sg20
g21
sbag1
(g8
g3
NtRp1265
(dp1266
g11
g32
sg13
VConsolas
p1267
sg15
I700
sg16
g12
sg17
g12
sg18
V/Library/Fonts/Microsoft/Consolas Bold Italic.ttf
p1268
sg20
g21
sbag1
(g8
g3
NtRp1269
(dp1270
g11
g12
sg13
VMicrosoft Sans Serif
p1271
sg15
I400
sg16
g12
sg17
g12
sg18
V/Library/Fonts/Microsoft Sans Serif.ttf
p1272
sg20
g21
sbag1
(g8
g3
NtRp1273
(dp1274
g11
g12
sg13
VLucida Console
p1275
sg15
I400
sg16
g12
sg17
g12
sg18
V/Library/Fonts/Microsoft/Lucida Console.ttf
p1276
sg20
g21
sbag1
(g8
g3
NtRp1277
(dp1278
g11
g12
sg13
VSTIXIntegralsUpD
p1279
sg15
I700
sg16
g12
sg17
g12
sg18
V/Library/Fonts/STIXIntUpDBol.otf
p1280
sg20
g21
sbag1
(g8
g3
NtRp1281
(dp1282
g11
g12
sg13
VMyriad Pro
p1283
sg15
I700
sg16
g12
sg17
g12
sg18
V/Library/Fonts/MyriadPro-Bold.otf
p1284
sg20
g21
sbag1
(g8
g3
NtRp1285
(dp1286
g11
g12
sg13
VSTIXGeneral
p1287
sg15
I400
sg16
g12
sg17
g12
sg18
V/Library/Fonts/STIXGeneral.otf
p1288
sg20
g21
sbag1
(g8
g3
NtRp1289
(dp1290
g11
g12
sg13
VTrajan Pro
p1291
sg15
I400
sg16
g12
sg17
g12
sg18
V/Library/Fonts/TrajanPro-Regular.otf
p1292
sg20
g21
sbag1
(g8
g3
NtRp1293
(dp1294
g11
g12
sg13
VYuppy TC
p1295
sg15
I400
sg16
g12
sg17
g12
sg18
V/Library/Fonts/YuppyTC-Regular.otf
p1296
sg20
g21
sbag1
(g8
g3
NtRp1297
(dp1298
g11
g12
sg13
VSystem Font
p1299
sg15
I400
sg16
g12
sg17
g12
sg18
V/System/Library/Fonts/SFNSDisplay-Thin.otf
p1300
sg20
g21
sbag1
(g8
g3
NtRp1301
(dp1302
g11
g41
sg13
VCMU Sans Serif
p1303
sg15
I400
sg16
g12
sg17
g12
sg18
V/Users/jer/Library/Fonts/cmunsi.otf
p1304
sg20
g21
sbag1
(g8
g3
NtRp1305
(dp1306
g11
g12
sg13
VApple Chancery
p1307
sg15
I400
sg16
g12
sg17
g12
sg18
V/Library/Fonts/Apple Chancery.ttf
p1308
sg20
g21
sbag1
(g8
g3
NtRp1309
(dp1310
g11
g32
sg13
VArno Pro
p1311
sg15
I700
sg16
g12
sg17
g12
sg18
V/Library/Fonts/ArnoPro-BoldItalicDisplay.otf
p1312
sg20
g21
sbag1
(g8
g3
NtRp1313
(dp1314
g11
g12
sg13
VSTIXIntegralsUpSm
p1315
sg15
I700
sg16
g12
sg17
g12
sg18
V/Library/Fonts/STIXIntUpSmBol.otf
p1316
sg20
g21
sbag1
(g8
g3
NtRp1317
(dp1318
g11
g12
sg13
VSTIXSizeOneSym
p1319
sg15
I700
sg16
g12
sg17
g12
sg18
V/Library/Fonts/STIXSizOneSymBol.otf
p1320
sg20
g21
sbag1
(g8
g3
NtRp1321
(dp1322
g11
g12
sg13
VPalatino Linotype
p1323
sg15
I400
sg16
g12
sg17
g12
sg18
V/Library/Fonts/Microsoft/Palatino Linotype.ttf
p1324
sg20
g21
sbag1
(g8
g3
NtRp1325
(dp1326
g11
g12
sg13
VSTIXSizeTwoSym
p1327
sg15
I400
sg16
g12
sg17
g12
sg18
V/Library/Fonts/STIXSizTwoSymReg.otf
p1328
sg20
g21
sbag1
(g8
g3
NtRp1329
(dp1330
g11
g32
sg13
VArno Pro
p1331
sg15
I400
sg16
g12
sg17
g12
sg18
V/Library/Fonts/ArnoPro-ItalicDisplay.otf
p1332
sg20
g21
sbag1
(g8
g3
NtRp1333
(dp1334
g11
g12
sg13
VMS PGothic
p1335
sg15
I400
sg16
g12
sg17
g12
sg18
V/Library/Fonts/Microsoft/MS PGothic.ttf
p1336
sg20
g21
sbag1
(g8
g3
NtRp1337
(dp1338
g11
g41
sg13
VCMU Bright
p1339
sg15
I700
sg16
g12
sg17
g12
sg18
V/Users/jer/Library/Fonts/cmunbso.otf
p1340
sg20
g21
sbag1
(g8
g3
NtRp1341
(dp1342
g11
g12
sg13
VSystem Font
p1343
sg15
I400
sg16
g12
sg17
g12
sg18
V/System/Library/Fonts/SFNSText-BoldG3.otf
p1344
sg20
g21
sbag1
(g8
g3
NtRp1345
(dp1346
g11
g32
sg13
VGaramond Premier Pro
p1347
sg15
I400
sg16
g12
sg17
g12
sg18
V/Library/Fonts/GaramondPremrPro-It.otf
p1348
sg20
g21
sbag1
(g8
g3
NtRp1349
(dp1350
g11
g12
sg13
VSTIXIntegralsUpD
p1351
sg15
I400
sg16
g12
sg17
g12
sg18
V/Library/Fonts/STIXIntUpDReg.otf
p1352
sg20
g21
sbag1
(g8
g3
NtRp1353
(dp1354
g11
g12
sg13
VArno Pro
p1355
sg15
I700
sg16
g12
sg17
g12
sg18
V/Library/Fonts/ArnoPro-BoldSmText.otf
p1356
sg20
g21
sbag1
(g8
g3
NtRp1357
(dp1358
g11
g32
sg13
VMeiryo
p1359
sg15
I700
sg16
g12
sg17
g12
sg18
V/Library/Fonts/Microsoft/Meiryo Bold Italic.ttf
p1360
sg20
g21
sbag1
(g8
g3
NtRp1361
(dp1362
g11
g12
sg13
VKozuka Gothic Pro
p1363
sg15
I700
sg16
g12
sg17
g12
sg18
V/Library/Fonts/KozGoPro-Bold.otf
p1364
sg20
g21
sbag1
(g8
g3
NtRp1365
(dp1366
g11
g32
sg13
VCandara
p1367
sg15
I400
sg16
g12
sg17
g12
sg18
V/Library/Fonts/Microsoft/Candara Italic.ttf
p1368
sg20
g21
sbag1
(g8
g3
NtRp1369
(dp1370
g11
g12
sg13
VKozuka Gothic Pro
p1371
sg15
I400
sg16
g12
sg17
g12
sg18
V/Library/Fonts/KozGoPro-Medium.otf
p1372
sg20
g21
sbag1
(g8
g3
NtRp1373
(dp1374
g11
g12
sg13
VArial Unicode MS
p1375
sg15
I400
sg16
g12
sg17
g12
sg18
V/Library/Fonts/Arial Unicode.ttf
p1376
sg20
g21
sbag1
(g8
g3
NtRp1377
(dp1378
g11
g12
sg13
VSystem Font
p1379
sg15
I400
sg16
g12
sg17
g12
sg18
V/System/Library/Fonts/SFNSText-BoldItalicG2.otf
p1380
sg20
g21
sbag1
(g8
g3
NtRp1381
(dp1382
g11
g12
sg13
VTimes New Roman
p1383
sg15
I700
sg16
g12
sg17
g12
sg18
V/Library/Fonts/Microsoft/Times New Roman Bold.ttf
p1384
sg20
g21
sbag1
(g8
g3
NtRp1385
(dp1386
g11
g32
sg13
VArno Pro
p1387
sg15
I200
sg16
g12
sg17
g12
sg18
V/Library/Fonts/ArnoPro-LightItalicDisplay.otf
p1388
sg20
g21
sbag1
(g8
g3
NtRp1389
(dp1390
g11
g12
sg13
VArno Pro
p1391
sg15
I700
sg16
g12
sg17
g12
sg18
V/Library/Fonts/ArnoPro-BoldCaption.otf
p1392
sg20
g21
sbag1
(g8
g3
NtRp1393
(dp1394
g11
g12
sg13
VSTIXIntegralsD
p1395
sg15
I700
sg16
g12
sg17
g12
sg18
V/Library/Fonts/STIXIntDBol.otf
p1396
sg20
g21
sbag1
(g8
g3
NtRp1397
(dp1398
g11
g12
sg13
VChaparral Pro
p1399
sg15
I700
sg16
g12
sg17
g12
sg18
V/Library/Fonts/ChaparralPro-Bold.otf
p1400
sg20
g21
sbag1
(g8
g3
NtRp1401
(dp1402
g11
g12
sg13
VDIN Alternate
p1403
sg15
I700
sg16
g12
sg17
g12
sg18
V/Library/Fonts/DIN Alternate Bold.ttf
p1404
sg20
g21
sbag1
(g8
g3
NtRp1405
(dp1406
g11
g12
sg13
VCourier New
p1407
sg15
I400
sg16
g12
sg17
g12
sg18
V/Library/Fonts/Courier New.ttf
p1408
sg20
g21
sbag1
(g8
g3
NtRp1409
(dp1410
g11
g32
sg13
VArial Narrow
p1411
sg15
I700
sg16
g183
sg17
g12
sg18
V/Library/Fonts/Arial Narrow Bold Italic.ttf
p1412
sg20
g21
sbag1
(g8
g3
NtRp1413
(dp1414
g11
g12
sg13
VZapfino
p1415
sg15
I400
sg16
g12
sg17
g12
sg18
V/Library/Fonts/Zapfino.ttf
p1416
sg20
g21
sbag1
(g8
g3
NtRp1417
(dp1418
g11
g12
sg13
VKrungthep
p1419
sg15
I400
sg16
g12
sg17
g12
sg18
V/Library/Fonts/Krungthep.ttf
p1420
sg20
g21
sbag1
(g8
g3
NtRp1421
(dp1422
g11
g12
sg13
VFranklin Gothic Medium
p1423
sg15
I500
sg16
g12
sg17
g12
sg18
V/Library/Fonts/Microsoft/Franklin Gothic Medium.ttf
p1424
sg20
g21
sbag1
(g8
g3
NtRp1425
(dp1426
g11
g12
sg13
VDiwan Thuluth
p1427
sg15
I400
sg16
g12
sg17
g12
sg18
V/Library/Fonts/Diwan Thuluth.ttf
p1428
sg20
g21
sbag1
(g8
g3
NtRp1429
(dp1430
g11
g32
sg13
VGaramond Premier Pro
p1431
sg15
I700
sg16
g12
sg17
g12
sg18
V/Library/Fonts/GaramondPremrPro-SmbdIt.otf
p1432
sg20
g21
sbag1
(g8
g3
NtRp1433
(dp1434
g11
g32
sg13
VCooper Std
p1435
sg15
I900
sg16
g12
sg17
g12
sg18
V/Library/Fonts/CooperBlackStd-Italic.otf
p1436
sg20
g21
sbag1
(g8
g3
NtRp1437
(dp1438
g11
g12
sg13
VSystem Font
p1439
sg15
I400
sg16
g12
sg17
g12
sg18
V/System/Library/Fonts/SFNSText-SemiboldItalic.otf
p1440
sg20
g21
sbag1
(g8
g3
NtRp1441
(dp1442
g11
g12
sg13
VMinion Pro
p1443
sg15
I700
sg16
g183
sg17
g12
sg18
V/Library/Fonts/MinionPro-BoldCn.otf
p1444
sg20
g21
sbag1
(g8
g3
NtRp1445
(dp1446
g11
g12
sg13
VSystem Font
p1447
sg15
I400
sg16
g12
sg17
g12
sg18
V/System/Library/Fonts/SFNSText-RegularItalicG3.otf
p1448
sg20
g21
sbag1
(g8
g3
NtRp1449
(dp1450
g11
g12
sg13
VApple Braille
p1451
sg15
I400
sg16
g12
sg17
g12
sg18
V/System/Library/Fonts/Apple Braille Outline 8 Dot.ttf
p1452
sg20
g21
sbag1
(g8
g3
NtRp1453
(dp1454
g11
g12
sg13
VKozuka Mincho Pro
p1455
sg15
I400
sg16
g12
sg17
g12
sg18
V/Library/Fonts/KozMinPro-Light.otf
p1456
sg20
g21
sbag1
(g8
g3
NtRp1457
(dp1458
g11
g12
sg13
VBickham Script Pro
p1459
sg15
I700
sg16
g12
sg17
g12
sg18
V/Library/Fonts/BickhamScriptPro-Semibold.otf
p1460
sg20
g21
sbag1
(g8
g3
NtRp1461
(dp1462
g11
g32
sg13
VCorbel
p1463
sg15
I400
sg16
g12
sg17
g12
sg18
V/Library/Fonts/Microsoft/Corbel Italic.ttf
p1464
sg20
g21
sbag1
(g8
g3
NtRp1465
(dp1466
g11
g12
sg13
VPalatino Linotype
p1467
sg15
I700
sg16
g12
sg17
g12
sg18
V/Library/Fonts/Microsoft/Palatino Linotype Bold.ttf
p1468
sg20
g21
sbag1
(g8
g3
NtRp1469
(dp1470
g11
g32
sg13
VAdobe Garamond Pro
p1471
sg15
I400
sg16
g12
sg17
g12
sg18
V/Library/Fonts/AGaramondPro-Italic.otf
p1472
sg20
g21
sbag1
(g8
g3
NtRp1473
(dp1474
g11
g12
sg13
VSTIXVariants
p1475
sg15
I700
sg16
g12
sg17
g12
sg18
V/Library/Fonts/STIXVarBol.otf
p1476
sg20
g21
sbag1
(g8
g3
NtRp1477
(dp1478
g11
g12
sg13
VMS Gothic
p1479
sg15
I400
sg16
g12
sg17
g12
sg18
V/Library/Fonts/Microsoft/MS Gothic.ttf
p1480
sg20
g21
sbag1
(g8
g3
NtRp1481
(dp1482
g11
g12
sg13
VMS PMincho
p1483
sg15
I400
sg16
g12
sg17
g12
sg18
V/Library/Fonts/Microsoft/MS PMincho.ttf
p1484
sg20
g21
sbag1
(g8
g3
NtRp1485
(dp1486
g11
g12
sg13
VSTIXIntegralsUp
p1487
sg15
I700
sg16
g12
sg17
g12
sg18
V/Library/Fonts/STIXIntUpBol.otf
p1488
sg20
g21
sbag1
(g8
g3
NtRp1489
(dp1490
g11
g12
sg13
VWawati TC
p1491
sg15
I400
sg16
g12
sg17
g12
sg18
V/Library/Fonts/WawaTC-Regular.otf
p1492
sg20
g21
sbag1
(g8
g3
NtRp1493
(dp1494
g11
g12
sg13
VMS Reference Sans Serif
p1495
sg15
I400
sg16
g12
sg17
g12
sg18
V/Library/Fonts/Microsoft/MS Reference Sans Serif.ttf
p1496
sg20
g21
sbag1
(g8
g3
NtRp1497
(dp1498
g11
g12
sg13
VSTIXSizeTwoSym
p1499
sg15
I700
sg16
g12
sg17
g12
sg18
V/Library/Fonts/STIXSizTwoSymBol.otf
p1500
sg20
g21
sbag1
(g8
g3
NtRp1501
(dp1502
g11
g12
sg13
VCorbel
p1503
sg15
I400
sg16
g12
sg17
g12
sg18
V/Library/Fonts/Microsoft/Corbel.ttf
p1504
sg20
g21
sbag1
(g8
g3
NtRp1505
(dp1506
g11
g12
sg13
VCMU Typewriter Text Variable Width
p1507
sg15
I400
sg16
g12
sg17
g12
sg18
V/Users/jer/Library/Fonts/cmunvt.otf
p1508
sg20
g21
sbag1
(g8
g3
NtRp1509
(dp1510
g11
g12
sg13
VAdobe Caslon Pro
p1511
sg15
I700
sg16
g12
sg17
g12
sg18
V/Library/Fonts/ACaslonPro-Semibold.otf
p1512
sg20
g21
sbag1
(g8
g3
NtRp1513
(dp1514
g11
g12
sg13
VEccentric Std
p1515
sg15
I400
sg16
g12
sg17
g12
sg18
V/Library/Fonts/EccentricStd.otf
p1516
sg20
g21
sbag1
(g8
g3
NtRp1517
(dp1518
g11
g12
sg13
VSimSun
p1519
sg15
I400
sg16
g12
sg17
g12
sg18
V/Library/Fonts/Microsoft/SimSun.ttf
p1520
sg20
g21
sbag1
(g8
g3
NtRp1521
(dp1522
g11
g32
sg13
VCMU Serif Extra
p1523
sg15
I700
sg16
g12
sg17
g12
sg18
V/Users/jer/Library/Fonts/cmunbl.otf
p1524
sg20
g21
sbag1
(g8
g3
NtRp1525
(dp1526
g11
g12
sg13
VSystem Font
p1527
sg15
I400
sg16
g12
sg17
g12
sg18
V/System/Library/Fonts/SFNSText-Medium.otf
p1528
sg20
g21
sbag1
(g8
g3
NtRp1529
(dp1530
g11
g12
sg13
VApple Braille
p1531
sg15
I400
sg16
g12
sg17
g12
sg18
V/System/Library/Fonts/Apple Braille Pinpoint 8 Dot.ttf
p1532
sg20
g21
sbag1
(g8
g3
NtRp1533
(dp1534
g11
g32
sg13
VGeorgia
p1535
sg15
I400
sg16
g12
sg17
g12
sg18
V/Library/Fonts/Georgia Italic.ttf
p1536
sg20
g21
sbag1
(g8
g3
NtRp1537
(dp1538
g11
g12
sg13
VApple Braille
p1539
sg15
I400
sg16
g12
sg17
g12
sg18
V/System/Library/Fonts/Apple Braille Outline 6 Dot.ttf
p1540
sg20
g21
sbag1
(g8
g3
NtRp1541
(dp1542
g11
g32
sg13
VGill Sans MT
p1543
sg15
I700
sg16
g12
sg17
g12
sg18
V/Library/Fonts/Microsoft/Gill Sans MT Bold Italic.ttf
p1544
sg20
g21
sbag1
(g8
g3
NtRp1545
(dp1546
g11
g12
sg13
VAdobe Garamond Pro
p1547
sg15
I400
sg16
g12
sg17
g12
sg18
V/Library/Fonts/AGaramondPro-Regular.otf
p1548
sg20
g21
sbag1
(g8
g3
NtRp1549
(dp1550
g11
g12
sg13
VChaparral Pro
p1551
sg15
I400
sg16
g12
sg17
g12
sg18
V/Library/Fonts/ChaparralPro-Regular.otf
p1552
sg20
g21
sbag1
(g8
g3
NtRp1553
(dp1554
g11
g12
sg13
VCalibri
p1555
sg15
I400
sg16
g12
sg17
g12
sg18
V/Library/Fonts/Microsoft/Calibri.ttf
p1556
sg20
g21
sbag1
(g8
g3
NtRp1557
(dp1558
g11
g12
sg13
VLiHei Pro
p1559
sg15
I400
sg16
g12
sg17
g12
sg18
V/Library/Fonts/\u5137\u9ed1 Pro.ttf
p1560
sg20
g21
sbag1
(g8
g3
NtRp1561
(dp1562
g11
g12
sg13
VSystem Font
p1563
sg15
I400
sg16
g12
sg17
g12
sg18
V/System/Library/Fonts/SFNSText-LightItalic.otf
p1564
sg20
g21
sbag1
(g8
g3
NtRp1565
(dp1566
g11
g12
sg13
VArno Pro
p1567
sg15
I700
sg16
g12
sg17
g12
sg18
V/Library/Fonts/ArnoPro-SmbdCaption.otf
p1568
sg20
g21
sbag1
(g8
g3
NtRp1569
(dp1570
g11
g12
sg13
VSTIXGeneral
p1571
sg15
I700
sg16
g12
sg17
g12
sg18
V/Library/Fonts/STIXGeneralBol.otf
p1572
sg20
g21
sbag1
(g8
g3
NtRp1573
(dp1574
g11
g12
sg13
VSystem Font
p1575
sg15
I400
sg16
g12
sg17
g12
sg18
V/System/Library/Fonts/SFNSText-Light.otf
p1576
sg20
g21
sbag1
(g8
g3
NtRp1577
(dp1578
g11
g12
sg13
VSystem Font
p1579
sg15
I400
sg16
g12
sg17
g12
sg18
V/System/Library/Fonts/SFNSDisplay-Ultralight.otf
p1580
sg20
g21
sbag1
(g8
g3
NtRp1581
(dp1582
g11
g32
sg13
VConstantia
p1583
sg15
I700
sg16
g12
sg17
g12
sg18
V/Library/Fonts/Microsoft/Constantia Bold Italic.ttf
p1584
sg20
g21
sbag1
(g8
g3
NtRp1585
(dp1586
g11
g12
sg13
VFranklin Gothic Book
p1587
sg15
I400
sg16
g12
sg17
g12
sg18
V/Library/Fonts/Microsoft/Franklin Gothic Book.ttf
p1588
sg20
g21
sbag1
(g8
g3
NtRp1589
(dp1590
g11
g12
sg13
VOsaka
p1591
sg15
I400
sg16
g12
sg17
g12
sg18
V/Library/Fonts/OsakaMono.ttf
p1592
sg20
g21
sbag1
(g8
g3
NtRp1593
(dp1594
g11
g32
sg13
VSTIXGeneral
p1595
sg15
I700
sg16
g12
sg17
g12
sg18
V/Library/Fonts/STIXGeneralBolIta.otf
p1596
sg20
g21
sbag1
(g8
g3
NtRp1597
(dp1598
g11
g12
sg13
VTrebuchet MS
p1599
sg15
I400
sg16
g12
sg17
g12
sg18
V/Library/Fonts/Trebuchet MS.ttf
p1600
sg20
g21
sbag1
(g8
g3
NtRp1601
(dp1602
g11
g12
sg13
VCourier New
p1603
sg15
I700
sg16
g12
sg17
g12
sg18
V/Library/Fonts/Courier New Bold.ttf
p1604
sg20
g21
sbag1
(g8
g3
NtRp1605
(dp1606
g11
g12
sg13
VHerculanum
p1607
sg15
I400
sg16
g12
sg17
g12
sg18
V/Library/Fonts/Herculanum.ttf
p1608
sg20
g21
sbag1
(g8
g3
NtRp1609
(dp1610
g11
g12
sg13
VSystem Font
p1611
sg15
I400
sg16
g12
sg17
g12
sg18
V/System/Library/Fonts/SFNSDisplay-Medium.otf
p1612
sg20
g21
sbag1
(g8
g3
NtRp1613
(dp1614
g11
g12
sg13
VCMU Bright
p1615
sg15
I700
sg16
g12
sg17
g12
sg18
V/Users/jer/Library/Fonts/cmunbbx.otf
p1616
sg20
g21
sbag1
(g8
g3
NtRp1617
(dp1618
g11
g12
sg13
VSystem Font
p1619
sg15
I400
sg16
g12
sg17
g12
sg18
V/System/Library/Fonts/SFNSText-MediumItalic.otf
p1620
sg20
g21
sbag1
(g8
g3
NtRp1621
(dp1622
g11
g32
sg13
VMinion Pro
p1623
sg15
I700
sg16
g12
sg17
g12
sg18
V/Library/Fonts/MinionPro-SemiboldIt.otf
p1624
sg20
g21
sbag1
(g8
g3
NtRp1625
(dp1626
g11
g12
sg13
VMS Reference Specialty
p1627
sg15
I400
sg16
g12
sg17
g12
sg18
V/Library/Fonts/Microsoft/MS Reference Specialty.ttf
p1628
sg20
g21
sbag1
(g8
g3
NtRp1629
(dp1630
g11
g12
sg13
VTahoma
p1631
sg15
I400
sg16
g12
sg17
g12
sg18
V/Library/Fonts/Tahoma.ttf
p1632
sg20
g21
sbag1
(g8
g3
NtRp1633
(dp1634
g11
g12
sg13
VGill Sans MT
p1635
sg15
I700
sg16
g12
sg17
g12
sg18
V/Library/Fonts/Microsoft/Gill Sans MT Bold.ttf
p1636
sg20
g21
sbag1
(g8
g3
NtRp1637
(dp1638
g11
g32
sg13
VPalatino Linotype
p1639
sg15
I400
sg16
g12
sg17
g12
sg18
V/Library/Fonts/Microsoft/Palatino Linotype Italic.ttf
p1640
sg20
g21
sbag1
(g8
g3
NtRp1641
(dp1642
g11
g12
sg13
VSTIXSizeOneSym
p1643
sg15
I400
sg16
g12
sg17
g12
sg18
V/Library/Fonts/STIXSizOneSymReg.otf
p1644
sg20
g21
sbag1
(g8
g3
NtRp1645
(dp1646
g11
g32
sg13
VOrator Std
p1647
sg15
I400
sg16
g12
sg17
g12
sg18
V/Library/Fonts/OratorStd-Slanted.otf
p1648
sg20
g21
sbag1
(g8
g3
NtRp1649
(dp1650
g11
g12
sg13
VSystem Font
p1651
sg15
I400
sg16
g12
sg17
g12
sg18
V/System/Library/Fonts/SFNSDisplay-Black.otf
p1652
sg20
g21
sbag1
(g8
g3
NtRp1653
(dp1654
g11
g12
sg13
VSystem Font
p1655
sg15
I400
sg16
g12
sg17
g12
sg18
V/System/Library/Fonts/SFNSText-RegularG1.otf
p1656
sg20
g21
sbag1
(g8
g3
NtRp1657
(dp1658
g11
g32
sg13
VMeiryo
p1659
sg15
I400
sg16
g12
sg17
g12
sg18
V/Library/Fonts/Microsoft/Meiryo Italic.ttf
p1660
sg20
g21
sbag1
(g8
g3
NtRp1661
(dp1662
g11
g12
sg13
VKozuka Mincho Pro
p1663
sg15
I400
sg16
g12
sg17
g12
sg18
V/Library/Fonts/KozMinPro-ExtraLight.otf
p1664
sg20
g21
sbag1
(g8
g3
NtRp1665
(dp1666
g11
g12
sg13
VTrattatello
p1667
sg15
I400
sg16
g12
sg17
g12
sg18
V/Library/Fonts/Trattatello.ttf
p1668
sg20
g21
sbag1
(g8
g3
NtRp1669
(dp1670
g11
g12
sg13
VHobo Std
p1671
sg15
I500
sg16
g12
sg17
g12
sg18
V/Library/Fonts/HoboStd.otf
p1672
sg20
g21
sbag1
(g8
g3
NtRp1673
(dp1674
g11
g12
sg13
VSystem Font
p1675
sg15
I400
sg16
g12
sg17
g12
sg18
V/System/Library/Fonts/SFNSText-BoldItalicG3.otf
p1676
sg20
g21
sbag1
(g8
g3
NtRp1677
(dp1678
g11
g12
sg13
V.LastResort
p1679
sg15
I400
sg16
g12
sg17
g12
sg18
V/System/Library/Fonts/LastResort.ttf
p1680
sg20
g21
sbag1
(g8
g3
NtRp1681
(dp1682
g11
g12
sg13
VSTIXIntegralsD
p1683
sg15
I400
sg16
g12
sg17
g12
sg18
V/Library/Fonts/STIXIntDReg.otf
p1684
sg20
g21
sbag1
(g8
g3
NtRp1685
(dp1686
g11
g12
sg13
VGungSeo
p1687
sg15
I400
sg16
g12
sg17
g12
sg18
V/Library/Fonts/Gungseouche.ttf
p1688
sg20
g21
sbag1
(g8
g3
NtRp1689
(dp1690
g11
g32
sg13
VCMU Serif
p1691
sg15
I700
sg16
g12
sg17
g12
sg18
V/Users/jer/Library/Fonts/cmunbi.otf
p1692
sg20
g21
sbag1
(g8
g3
NtRp1693
(dp1694
g11
g12
sg13
VKozuka Gothic Pro
p1695
sg15
I400
sg16
g12
sg17
g12
sg18
V/Library/Fonts/KozGoPro-Regular.otf
p1696
sg20
g21
sbag1
(g8
g3
NtRp1697
(dp1698
g11
g12
sg13
VSathu
p1699
sg15
I400
sg16
g12
sg17
g12
sg18
V/Library/Fonts/Sathu.ttf
p1700
sg20
g21
sbag1
(g8
g3
NtRp1701
(dp1702
g11
g12
sg13
VSystem Font
p1703
sg15
I400
sg16
g12
sg17
g12
sg18
V/System/Library/Fonts/SFNSDisplay-Regular.otf
p1704
sg20
g21
sbasS'defaultFamily'
p1705
(dp1706
Vafm
p1707
VHelvetica
p1708
sVttf
p1709
VDejaVu Sans
p1710
ssS'ttffiles'
p1711
(lp1712
g19
ag25
ag29
ag34
ag38
ag43
ag47
ag51
ag55
ag59
ag63
ag67
ag71
ag75
ag79
ag83
ag87
ag91
ag95
ag99
ag103
ag107
ag111
ag115
ag119
ag123
ag127
ag131
ag135
ag139
ag143
ag147
ag151
ag155
ag159
ag163
ag167
ag171
ag175
ag179
ag184
ag188
ag192
ag196
ag200
ag204
ag208
aV/Library/Fonts/NISC18030.ttf
p1713
ag212
ag216
ag220
ag224
ag228
ag232
ag236
ag240
ag244
ag248
ag252
ag256
ag260
ag264
ag268
ag272
ag276
ag280
ag284
ag288
ag292
ag296
ag300
ag304
ag308
ag312
aV/System/Library/Fonts/Apple Color Emoji.ttf
p1714
ag316
ag320
ag324
ag328
ag332
ag336
ag340
ag344
ag348
ag352
ag356
ag360
ag364
ag368
ag372
ag376
ag380
ag384
ag388
ag392
ag396
ag400
ag404
ag408
ag412
ag416
ag420
ag424
ag428
ag432
ag436
ag440
ag444
ag448
ag452
ag456
ag460
ag464
ag468
ag472
ag476
ag480
ag484
ag488
ag492
ag496
ag500
ag504
ag508
ag512
ag516
ag520
ag524
ag528
ag532
ag536
ag540
ag544
ag548
ag552
ag556
ag560
ag564
ag568
ag572
ag576
ag580
ag584
ag588
ag592
ag596
ag600
ag604
ag608
aV/Library/Fonts/Microsoft/Wingdings.ttf
p1715
ag612
ag616
ag620
ag624
ag628
ag632
ag636
ag640
ag644
ag648
ag652
ag656
ag660
ag664
ag668
ag672
ag676
ag680
ag684
ag688
ag692
ag696
ag700
ag704
ag708
ag712
ag716
ag720
ag724
ag728
ag732
ag736
ag740
ag744
ag748
ag752
aV/Library/Fonts/Verdana.ttf
p1716
ag756
ag760
ag764
ag768
aV/Library/Fonts/Arial Italic.ttf
p1717
ag772
ag776
aV/Library/Fonts/Verdana Italic.ttf
p1718
ag780
ag784
ag788
ag792
ag796
ag800
ag804
ag808
ag812
ag816
ag820
ag824
ag828
ag832
ag836
ag840
ag844
ag848
ag852
ag856
ag860
ag864
ag868
ag872
ag876
ag880
aV/Library/Fonts/Microsoft/Arial Bold Italic.ttf
p1719
ag884
ag888
ag892
ag896
ag900
ag904
ag908
ag912
ag916
ag920
ag924
ag928
ag932
ag936
ag940
ag944
ag948
ag952
ag956
ag960
ag964
ag968
ag972
ag976
ag980
ag984
ag988
aV/Library/Fonts/Verdana Bold.ttf
p1720
ag992
ag996
ag1000
ag1004
aV/Library/Fonts/Arial.ttf
p1721
ag1008
ag1012
ag1016
aV/Library/Fonts/Microsoft/Times New Roman.ttf
p1722
ag1020
ag1024
ag1028
ag1032
ag1036
aV/Library/Fonts/Times New Roman Italic.ttf
p1723
ag1040
ag1044
ag1048
ag1052
ag1056
ag1060
ag1064
ag1068
aV/Library/Fonts/Times New Roman Bold Italic.ttf
p1724
ag1072
ag1076
ag1080
ag1084
ag1088
ag1092
ag1096
ag1100
ag1104
ag1108
ag1112
ag1116
ag1120
ag1124
ag1128
ag1132
ag1136
ag1140
ag1144
ag1148
ag1152
ag1156
ag1160
ag1164
ag1168
ag1172
ag1176
ag1180
ag1184
ag1188
ag1192
ag1196
ag1200
ag1204
ag1208
ag1212
ag1216
ag1220
ag1224
ag1228
ag1232
ag1236
ag1240
ag1244
ag1248
ag1252
ag1256
ag1260
ag1264
ag1268
ag1272
ag1276
ag1280
ag1284
ag1288
aV/Library/Fonts/Microsoft/Verdana Bold Italic.ttf
p1725
ag1292
ag1296
ag1300
ag1304
ag1308
ag1312
ag1316
ag1320
ag1324
ag1328
ag1332
aV/Library/Fonts/Arial Bold.ttf
p1726
ag1336
ag1340
ag1344
ag1348
ag1352
ag1356
ag1360
ag1364
ag1368
ag1372
ag1376
ag1380
ag1384
ag1388
ag1392
ag1396
ag1400
ag1404
ag1408
ag1412
ag1416
ag1420
ag1424
ag1428
ag1432
ag1436
ag1440
ag1444
ag1448
ag1452
ag1456
ag1460
aV/Library/Fonts/Times New Roman Bold.ttf
p1727
ag1464
ag1468
ag1472
ag1476
ag1480
ag1484
ag1488
ag1492
ag1496
ag1500
ag1504
ag1508
ag1512
ag1516
ag1520
ag1524
ag1528
ag1532
ag1536
ag1540
ag1544
ag1548
ag1552
ag1556
ag1560
ag1564
ag1568
ag1572
ag1576
ag1580
ag1584
ag1588
ag1592
ag1596
ag1600
ag1604
ag1608
ag1612
ag1616
ag1620
ag1624
aV/Library/Fonts/Wingdings 2.ttf
p1728
ag1628
ag1632
aV/Library/Fonts/Brush Script.ttf
p1729
ag1636
ag1640
ag1644
ag1648
ag1652
ag1656
ag1660
ag1664
ag1668
ag1672
ag1676
ag1680
ag1684
ag1688
ag1692
aV/Library/Fonts/Wingdings 3.ttf
p1730
ag1696
ag1700
ag1704
asS'_FontManager__default_weight'
p1731
Vnormal
p1732
sS'_version'
p1733
I200
sS'default_size'
p1734
NsS'defaultFont'
p1735
(dp1736
g1707
V/anaconda/anaconda/envs/ctools/lib/python2.7/site-packages/matplotlib/mpl-data/fonts/pdfcorefonts/ZapfDingbats.afm
p1737
sg1709
g19
ssS'afmfiles'
p1738
(lp1739
g1737
aV/anaconda/anaconda/envs/ctools/lib/python2.7/site-packages/matplotlib/mpl-data/fonts/pdfcorefonts/Times-Roman.afm
p1740
aV/anaconda/anaconda/envs/ctools/lib/python2.7/site-packages/matplotlib/mpl-data/fonts/afm/pplbi8a.afm
p1741
aV/anaconda/anaconda/envs/ctools/lib/python2.7/site-packages/matplotlib/mpl-data/fonts/pdfcorefonts/Helvetica.afm
p1742
aV/anaconda/anaconda/envs/ctools/lib/python2.7/site-packages/matplotlib/mpl-data/fonts/afm/phvb8an.afm
p1743
aV/anaconda/anaconda/envs/ctools/lib/python2.7/site-packages/matplotlib/mpl-data/fonts/afm/phvr8a.afm
p1744
aV/anaconda/anaconda/envs/ctools/lib/python2.7/site-packages/matplotlib/mpl-data/fonts/afm/pbkd8a.afm
p1745
aV/anaconda/anaconda/envs/ctools/lib/python2.7/site-packages/matplotlib/mpl-data/fonts/afm/ptmb8a.afm
p1746
aV/anaconda/anaconda/envs/ctools/lib/python2.7/site-packages/matplotlib/mpl-data/fonts/afm/pbkdi8a.afm
p1747
aV/anaconda/anaconda/envs/ctools/lib/python2.7/site-packages/matplotlib/mpl-data/fonts/afm/pncbi8a.afm
p1748
aV/anaconda/anaconda/envs/ctools/lib/python2.7/site-packages/matplotlib/mpl-data/fonts/afm/ptmr8a.afm
p1749
aV/anaconda/anaconda/envs/ctools/lib/python2.7/site-packages/matplotlib/mpl-data/fonts/afm/pbkl8a.afm
p1750
aV/anaconda/anaconda/envs/ctools/lib/python2.7/site-packages/matplotlib/mpl-data/fonts/afm/pncr8a.afm
p1751
aV/anaconda/anaconda/envs/ctools/lib/python2.7/site-packages/matplotlib/mpl-data/fonts/pdfcorefonts/Helvetica-BoldOblique.afm
p1752
aV/anaconda/anaconda/envs/ctools/lib/python2.7/site-packages/matplotlib/mpl-data/fonts/afm/pcrbo8a.afm
p1753
aV/anaconda/anaconda/envs/ctools/lib/python2.7/site-packages/matplotlib/mpl-data/fonts/afm/pzdr.afm
p1754
aV/anaconda/anaconda/envs/ctools/lib/python2.7/site-packages/matplotlib/mpl-data/fonts/afm/putr8a.afm
p1755
aV/anaconda/anaconda/envs/ctools/lib/python2.7/site-packages/matplotlib/mpl-data/fonts/afm/putri8a.afm
p1756
aV/anaconda/anaconda/envs/ctools/lib/python2.7/site-packages/matplotlib/mpl-data/fonts/afm/phvlo8a.afm
p1757
aV/anaconda/anaconda/envs/ctools/lib/python2.7/site-packages/matplotlib/mpl-data/fonts/pdfcorefonts/Times-Bold.afm
p1758
aV/anaconda/anaconda/envs/ctools/lib/python2.7/site-packages/matplotlib/mpl-data/fonts/afm/pplr8a.afm
p1759
aV/anaconda/anaconda/envs/ctools/lib/python2.7/site-packages/matplotlib/mpl-data/fonts/pdfcorefonts/Times-Italic.afm
p1760
aV/anaconda/anaconda/envs/ctools/lib/python2.7/site-packages/matplotlib/mpl-data/fonts/afm/pplri8a.afm
p1761
aV/anaconda/anaconda/envs/ctools/lib/python2.7/site-packages/matplotlib/mpl-data/fonts/pdfcorefonts/Times-BoldItalic.afm
p1762
aV/anaconda/anaconda/envs/ctools/lib/python2.7/site-packages/matplotlib/mpl-data/fonts/afm/pcrro8a.afm
p1763
aV/anaconda/anaconda/envs/ctools/lib/python2.7/site-packages/matplotlib/mpl-data/fonts/afm/phvr8an.afm
p1764
aV/anaconda/anaconda/envs/ctools/lib/python2.7/site-packages/matplotlib/mpl-data/fonts/afm/pagko8a.afm
p1765
aV/anaconda/anaconda/envs/ctools/lib/python2.7/site-packages/matplotlib/mpl-data/fonts/pdfcorefonts/Helvetica-Bold.afm
p1766
aV/anaconda/anaconda/envs/ctools/lib/python2.7/site-packages/matplotlib/mpl-data/fonts/afm/psyr.afm
p1767
aV/anaconda/anaconda/envs/ctools/lib/python2.7/site-packages/matplotlib/mpl-data/fonts/afm/phvro8an.afm
p1768
aV/anaconda/anaconda/envs/ctools/lib/python2.7/site-packages/matplotlib/mpl-data/fonts/afm/cmex10.afm
p1769
aV/anaconda/anaconda/envs/ctools/lib/python2.7/site-packages/matplotlib/mpl-data/fonts/afm/pcrr8a.afm
p1770
aV/anaconda/anaconda/envs/ctools/lib/python2.7/site-packages/matplotlib/mpl-data/fonts/afm/phvbo8a.afm
p1771
aV/anaconda/anaconda/envs/ctools/lib/python2.7/site-packages/matplotlib/mpl-data/fonts/afm/ptmbi8a.afm
p1772
aV/anaconda/anaconda/envs/ctools/lib/python2.7/site-packages/matplotlib/mpl-data/fonts/afm/cmsy10.afm
p1773
aV/anaconda/anaconda/envs/ctools/lib/python2.7/site-packages/matplotlib/mpl-data/fonts/pdfcorefonts/Symbol.afm
p1774
aV/anaconda/anaconda/envs/ctools/lib/python2.7/site-packages/matplotlib/mpl-data/fonts/afm/cmr10.afm
p1775
aV/anaconda/anaconda/envs/ctools/lib/python2.7/site-packages/matplotlib/mpl-data/fonts/afm/pbkli8a.afm
p1776
aV/anaconda/anaconda/envs/ctools/lib/python2.7/site-packages/matplotlib/mpl-data/fonts/afm/phvro8a.afm
p1777
aV/anaconda/anaconda/envs/ctools/lib/python2.7/site-packages/matplotlib/mpl-data/fonts/afm/pcrb8a.afm
p1778
aV/anaconda/anaconda/envs/ctools/lib/python2.7/site-packages/matplotlib/mpl-data/fonts/afm/pagdo8a.afm
p1779
aV/anaconda/anaconda/envs/ctools/lib/python2.7/site-packages/matplotlib/mpl-data/fonts/afm/putbi8a.afm
p1780
aV/anaconda/anaconda/envs/ctools/lib/python2.7/site-packages/matplotlib/mpl-data/fonts/pdfcorefonts/Courier-Bold.afm
p1781
aV/anaconda/anaconda/envs/ctools/lib/python2.7/site-packages/matplotlib/mpl-data/fonts/afm/pncri8a.afm
p1782
aV/anaconda/anaconda/envs/ctools/lib/python2.7/site-packages/matplotlib/mpl-data/fonts/afm/pplb8a.afm
p1783
aV/anaconda/anaconda/envs/ctools/lib/python2.7/site-packages/matplotlib/mpl-data/fonts/pdfcorefonts/Courier-Oblique.afm
p1784
aV/anaconda/anaconda/envs/ctools/lib/python2.7/site-packages/matplotlib/mpl-data/fonts/afm/pncb8a.afm
p1785
aV/anaconda/anaconda/envs/ctools/lib/python2.7/site-packages/matplotlib/mpl-data/fonts/pdfcorefonts/Courier-BoldOblique.afm
p1786
aV/anaconda/anaconda/envs/ctools/lib/python2.7/site-packages/matplotlib/mpl-data/fonts/afm/putb8a.afm
p1787
aV/anaconda/anaconda/envs/ctools/lib/python2.7/site-packages/matplotlib/mpl-data/fonts/afm/phvl8a.afm
p1788
aV/anaconda/anaconda/envs/ctools/lib/python2.7/site-packages/matplotlib/mpl-data/fonts/afm/pagk8a.afm
p1789
aV/anaconda/anaconda/envs/ctools/lib/python2.7/site-packages/matplotlib/mpl-data/fonts/pdfcorefonts/Helvetica-Oblique.afm
p1790
aV/anaconda/anaconda/envs/ctools/lib/python2.7/site-packages/matplotlib/mpl-data/fonts/afm/cmmi10.afm
p1791
aV/anaconda/anaconda/envs/ctools/lib/python2.7/site-packages/matplotlib/mpl-data/fonts/afm/phvbo8an.afm
p1792
aV/anaconda/anaconda/envs/ctools/lib/python2.7/site-packages/matplotlib/mpl-data/fonts/afm/cmtt10.afm
p1793
aV/anaconda/anaconda/envs/ctools/lib/python2.7/site-packages/matplotlib/mpl-data/fonts/pdfcorefonts/Courier.afm
p1794
aV/anaconda/anaconda/envs/ctools/lib/python2.7/site-packages/matplotlib/mpl-data/fonts/afm/pagd8a.afm
p1795
aV/anaconda/anaconda/envs/ctools/lib/python2.7/site-packages/matplotlib/mpl-data/fonts/afm/pzcmi8a.afm
p1796
aV/anaconda/anaconda/envs/ctools/lib/python2.7/site-packages/matplotlib/mpl-data/fonts/afm/phvb8a.afm
p1797
aV/anaconda/anaconda/envs/ctools/lib/python2.7/site-packages/matplotlib/mpl-data/fonts/afm/ptmri8a.afm
p1798
asS'afmlist'
p1799
(lp1800
g1
(g8
g3
NtRp1801
(dp1802
g11
Vnormal
p1803
sg13
S'ZapfDingbats'
p1804
sg15
I500
sg16
g1803
sg17
g1803
sg18
g1737
sg20
Vscalable
p1805
sbag1
(g8
g3
NtRp1806
(dp1807
g11
g1803
sg13
S'Times'
p1808
sg15
I500
sg16
g1803
sg17
g1803
sg18
g1740
sg20
g1805
sbag1
(g8
g3
NtRp1809
(dp1810
g11
Vitalic
p1811
sg13
S'Palatino'
p1812
sg15
I700
sg16
g1803
sg17
g1803
sg18
g1741
sg20
g1805
sbag1
(g8
g3
NtRp1813
(dp1814
g11
g1803
sg13
S'Helvetica'
p1815
sg15
I500
sg16
g1803
sg17
g1803
sg18
g1742
sg20
g1805
sbag1
(g8
g3
NtRp1816
(dp1817
g11
g1803
sg13
S'Helvetica'
p1818
sg15
I700
sg16
Vcondensed
p1819
sg17
g1803
sg18
g1743
sg20
g1805
sbag1
(g8
g3
NtRp1820
(dp1821
g11
g1803
sg13
S'Helvetica'
p1822
sg15
I500
sg16
g1803
sg17
g1803
sg18
g1744
sg20
g1805
sbag1
(g8
g3
NtRp1823
(dp1824
g11
g1803
sg13
S'ITC Bookman'
p1825
sg15
I600
sg16
g1803
sg17
g1803
sg18
g1745
sg20
g1805
sbag1
(g8
g3
NtRp1826
(dp1827
g11
g1803
sg13
S'Times'
p1828
sg15
I700
sg16
g1803
sg17
g1803
sg18
g1746
sg20
g1805
sbag1
(g8
g3
NtRp1829
(dp1830
g11
g1811
sg13
S'ITC Bookman'
p1831
sg15
I600
sg16
g1803
sg17
g1803
sg18
g1747
sg20
g1805
sbag1
(g8
g3
NtRp1832
(dp1833
g11
g1811
sg13
S'New Century Schoolbook'
p1834
sg15
I700
sg16
g1803
sg17
g1803
sg18
g1748
sg20
g1805
sbag1
(g8
g3
NtRp1835
(dp1836
g11
g1803
sg13
S'Times'
p1837
sg15
I500
sg16
g1803
sg17
g1803
sg18
g1749
sg20
g1805
sbag1
(g8
g3
NtRp1838
(dp1839
g11
g1803
sg13
S'ITC Bookman'
p1840
sg15
I200
sg16
g1803
sg17
g1803
sg18
g1750
sg20
g1805
sbag1
(g8
g3
NtRp1841
(dp1842
g11
g1803
sg13
S'New Century Schoolbook'
p1843
sg15
I500
sg16
g1803
sg17
g1803
sg18
g1751
sg20
g1805
sbag1
(g8
g3
NtRp1844
(dp1845
g11
g1811
sg13
S'Helvetica'
p1846
sg15
I700
sg16
g1803
sg17
g1803
sg18
g1752
sg20
g1805
sbag1
(g8
g3
NtRp1847
(dp1848
g11
g1811
sg13
S'Courier'
p1849
sg15
I700
sg16
g1803
sg17
g1803
sg18
g1753
sg20
g1805
sbag1
(g8
g3
NtRp1850
(dp1851
g11
g1803
sg13
S'ITC Zapf Dingbats'
p1852
sg15
I500
sg16
g1803
sg17
g1803
sg18
g1754
sg20
g1805
sbag1
(g8
g3
NtRp1853
(dp1854
g11
g1803
sg13
S'Utopia'
p1855
sg15
I400
sg16
g1803
sg17
g1803
sg18
g1755
sg20
g1805
sbag1
(g8
g3
NtRp1856
(dp1857
g11
g1811
sg13
S'Utopia'
p1858
sg15
I400
sg16
g1803
sg17
g1803
sg18
g1756
sg20
g1805
sbag1
(g8
g3
NtRp1859
(dp1860
g11
g1811
sg13
S'Helvetica'
p1861
sg15
I200
sg16
g1803
sg17
g1803
sg18
g1757
sg20
g1805
sbag1
(g8
g3
NtRp1862
(dp1863
g11
g1803
sg13
S'Times'
p1864
sg15
I700
sg16
g1803
sg17
g1803
sg18
g1758
sg20
g1805
sbag1
(g8
g3
NtRp1865
(dp1866
g11
g1803
sg13
S'Palatino'
p1867
sg15
I500
sg16
g1803
sg17
g1803
sg18
g1759
sg20
g1805
sbag1
(g8
g3
NtRp1868
(dp1869
g11
g1811
sg13
S'Times'
p1870
sg15
I500
sg16
g1803
sg17
g1803
sg18
g1760
sg20
g1805
sbag1
(g8
g3
NtRp1871
(dp1872
g11
g1811
sg13
S'Palatino'
p1873
sg15
I500
sg16
g1803
sg17
g1803
sg18
g1761
sg20
g1805
sbag1
(g8
g3
NtRp1874
(dp1875
g11
g1811
sg13
S'Times'
p1876
sg15
I700
sg16
g1803
sg17
g1803
sg18
g1762
sg20
g1805
sbag1
(g8
g3
NtRp1877
(dp1878
g11
g1811
sg13
S'Courier'
p1879
sg15
I500
sg16
g1803
sg17
g1803
sg18
g1763
sg20
g1805
sbag1
(g8
g3
NtRp1880
(dp1881
g11
g1803
sg13
S'Helvetica'
p1882
sg15
I500
sg16
g1819
sg17
g1803
sg18
g1764
sg20
g1805
sbag1
(g8
g3
NtRp1883
(dp1884
g11
g1811
sg13
S'ITC Avant Garde Gothic'
p1885
sg15
I400
sg16
g1803
sg17
g1803
sg18
g1765
sg20
g1805
sbag1
(g8
g3
NtRp1886
(dp1887
g11
g1803
sg13
S'Helvetica'
p1888
sg15
I700
sg16
g1803
sg17
g1803
sg18
g1766
sg20
g1805
sbag1
(g8
g3
NtRp1889
(dp1890
g11
g1803
sg13
S'Symbol'
p1891
sg15
I500
sg16
g1803
sg17
g1803
sg18
g1767
sg20
g1805
sbag1
(g8
g3
NtRp1892
(dp1893
g11
g1811
sg13
S'Helvetica'
p1894
sg15
I500
sg16
g1819
sg17
g1803
sg18
g1768
sg20
g1805
sbag1
(g8
g3
NtRp1895
(dp1896
g11
g1803
sg13
S'Computer Modern'
p1897
sg15
I500
sg16
g1803
sg17
g1803
sg18
g1769
sg20
g1805
sbag1
(g8
g3
NtRp1898
(dp1899
g11
g1803
sg13
S'Courier'
p1900
sg15
I500
sg16
g1803
sg17
g1803
sg18
g1770
sg20
g1805
sbag1
(g8
g3
NtRp1901
(dp1902
g11
g1811
sg13
S'Helvetica'
p1903
sg15
I700
sg16
g1803
sg17
g1803
sg18
g1771
sg20
g1805
sbag1
(g8
g3
NtRp1904
(dp1905
g11
g1811
sg13
S'Times'
p1906
sg15
I700
sg16
g1803
sg17
g1803
sg18
g1772
sg20
g1805
sbag1
(g8
g3
NtRp1907
(dp1908
g11
g1811
sg13
S'Computer Modern'
p1909
sg15
I500
sg16
g1803
sg17
g1803
sg18
g1773
sg20
g1805
sbag1
(g8
g3
NtRp1910
(dp1911
g11
g1803
sg13
S'Symbol'
p1912
sg15
I500
sg16
g1803
sg17
g1803
sg18
g1774
sg20
g1805
sbag1
(g8
g3
NtRp1913
(dp1914
g11
g1803
sg13
S'Computer Modern'
p1915
sg15
I500
sg16
g1803
sg17
g1803
sg18
g1775
sg20
g1805
sbag1
(g8
g3
NtRp1916
(dp1917
g11
g1811
sg13
S'ITC Bookman'
p1918
sg15
I200
sg16
g1803
sg17
g1803
sg18
g1776
sg20
g1805
sbag1
(g8
g3
NtRp1919
(dp1920
g11
g1811
sg13
S'Helvetica'
p1921
sg15
I500
sg16
g1803
sg17
g1803
sg18
g1777
sg20
g1805
sbag1
(g8
g3
NtRp1922
(dp1923
g11
g1803
sg13
S'Courier'
p1924
sg15
I700
sg16
g1803
sg17
g1803
sg18
g1778
sg20
g1805
sbag1
(g8
g3
NtRp1925
(dp1926
g11
g1811
sg13
S'ITC Avant Garde Gothic'
p1927
sg15
I600
sg16
g1803
sg17
g1803
sg18
g1779
sg20
g1805
sbag1
(g8
g3
NtRp1928
(dp1929
g11
g1811
sg13
S'Utopia'
p1930
sg15
I700
sg16
g1803
sg17
g1803
sg18
g1780
sg20
g1805
sbag1
(g8
g3
NtRp1931
(dp1932
g11
g1803
sg13
S'Courier'
p1933
sg15
I700
sg16
g1803
sg17
g1803
sg18
g1781
sg20
g1805
sbag1
(g8
g3
NtRp1934
(dp1935
g11
g1811
sg13
S'New Century Schoolbook'
p1936
sg15
I500
sg16
g1803
sg17
g1803
sg18
g1782
sg20
g1805
sbag1
(g8
g3
NtRp1937
(dp1938
g11
g1803
sg13
S'Palatino'
p1939
sg15
I700
sg16
g1803
sg17
g1803
sg18
g1783
sg20
g1805
sbag1
(g8
g3
NtRp1940
(dp1941
g11
g1811
sg13
S'Courier'
p1942
sg15
I500
sg16
g1803
sg17
g1803
sg18
g1784
sg20
g1805
sbag1
(g8
g3
NtRp1943
(dp1944
g11
g1803
sg13
S'New Century Schoolbook'
p1945
sg15
I700
sg16
g1803
sg17
g1803
sg18
g1785
sg20
g1805
sbag1
(g8
g3
NtRp1946
(dp1947
g11
g1811
sg13
S'Courier'
p1948
sg15
I700
sg16
g1803
sg17
g1803
sg18
g1786
sg20
g1805
sbag1
(g8
g3
NtRp1949
(dp1950
g11
g1803
sg13
S'Utopia'
p1951
sg15
I700
sg16
g1803
sg17
g1803
sg18
g1787
sg20
g1805
sbag1
(g8
g3
NtRp1952
(dp1953
g11
g1803
sg13
S'Helvetica'
p1954
sg15
I200
sg16
g1803
sg17
g1803
sg18
g1788
sg20
g1805
sbag1
(g8
g3
NtRp1955
(dp1956
g11
g1803
sg13
S'ITC Avant Garde Gothic'
p1957
sg15
I400
sg16
g1803
sg17
g1803
sg18
g1789
sg20
g1805
sbag1
(g8
g3
NtRp1958
(dp1959
g11
g1811
sg13
S'Helvetica'
p1960
sg15
I500
sg16
g1803
sg17
g1803
sg18
g1790
sg20
g1805
sbag1
(g8
g3
NtRp1961
(dp1962
g11
g1811
sg13
S'Computer Modern'
p1963
sg15
I500
sg16
g1803
sg17
g1803
sg18
g1791
sg20
g1805
sbag1
(g8
g3
NtRp1964
(dp1965
g11
g1811
sg13
S'Helvetica'
p1966
sg15
I700
sg16
g1819
sg17
g1803
sg18
g1792
sg20
g1805
sbag1
(g8
g3
NtRp1967
(dp1968
g11
g1803
sg13
S'Computer Modern'
p1969
sg15
I500
sg16
g1803
sg17
g1803
sg18
g1793
sg20
g1805
sbag1
(g8
g3
NtRp1970
(dp1971
g11
g1803
sg13
S'Courier'
p1972
sg15
I500
sg16
g1803
sg17
g1803
sg18
g1794
sg20
g1805
sbag1
(g8
g3
NtRp1973
(dp1974
g11
g1803
sg13
S'ITC Avant Garde Gothic'
p1975
sg15
I600
sg16
g1803
sg17
g1803
sg18
g1795
sg20
g1805
sbag1
(g8
g3
NtRp1976
(dp1977
g11
g1811
sg13
S'ITC Zapf Chancery'
p1978
sg15
I500
sg16
g1803
sg17
g1803
sg18
g1796
sg20
g1805
sbag1
(g8
g3
NtRp1979
(dp1980
g11
g1803
sg13
S'Helvetica'
p1981
sg15
I700
sg16
g1803
sg17
g1803
sg18
g1797
sg20
g1805
sbag1
(g8
g3
NtRp1982
(dp1983
g11
g1811
sg13
S'Times'
p1984
sg15
I500
sg16
g1803
sg17
g1803
sg18
g1798
sg20
g1805
sbasb.